******************************************************************************
                  TI ARM Linker PC v16.9.1                     
******************************************************************************
>> Linked Fri Dec 16 14:26:11 2016

OUTPUT FILE NAME:   <DTC1200_TivaTM4C123AE6PM.out>
ENTRY POINT SYMBOL: "_c_int00"  address: 0000a741


MEMORY CONFIGURATION

         name            origin    length      used     unused   attr    fill
----------------------  --------  ---------  --------  --------  ----  --------
  FLASH                 00000000   00020000  000106c6  0000f93a  R  X
  SRAM                  20000000   00008000  00005c56  000023aa  RW X


SEGMENT ALLOCATION MAP

run origin  load origin   length   init length attrs members
----------  ----------- ---------- ----------- ----- -------
00000000    00000000    000106d0   000106d0    r-x
  00000000    00000000    0000003c   0000003c    r-- .resetVecs
  00000040    00000040    0000d68a   0000d68a    r-x .text
  0000d6cc    0000d6cc    000029e0   000029e0    r-- .const
  000100b0    000100b0    00000620   00000620    r-- .cinit
20000000    20000000    00000360   00000000    rw-
  20000000    20000000    00000360   00000000    rw- .vecs
20000400    20000400    000058f8   00000000    rw-
  20000400    20000400    000042f0   00000000    rw- .bss
  200046f0    200046f0    00001306   00000000    rw- .data
  200059f8    200059f8    00000300   00000000    rw- .stack


SECTION ALLOCATION MAP

 output                                  attributes/
section   page    origin      length       input sections
--------  ----  ----------  ----------   ----------------
.resetVecs 
*          0    00000000    0000003c     
                  00000000    0000003c     DTC1200_pem4f.oem4f (.resetVecs)

.text      0    00000040    0000d68a     
                  00000040    00001740     TerminalTask.obj (.text)
                  00001780    0000113e     rtsv7M4_T_le_v4SPD16_eabi.lib : _printfi.obj (.text)
                  000028be    00000002     drivers_tivaware.aem4f : SPITivaDMA.oem4f (.text:SPITivaDMA_serviceISR)
                  000028c0    000008d8     TransportTask.obj (.text)
                  00003198    000007c4     ServoTask.obj (.text)
                  0000395c    0000075c     DTC1200.obj (.text)
                  000040b8    00000620     Diag.obj (.text)
                  000046d8    000005bc     DTC1200_TivaTM4C123AE6PMI.obj (.text)
                  00004c94    00000440     IOExpander.obj (.text)
                  000050d4    00000004     driverlib.lib : i2c.obj (.text:I2CMasterControl)
                  000050d8    00000430     sysbios.aem4f : BIOS.obj (.text:ti_sysbios_family_arm_m3_Hwi_excDumpRegs__I)
                  00005508    0000034c     ti.targets.arm.rtsarm.aem4f : System.oem4f (.text:xdc_runtime_System_doPrint__I)
                  00005854    00000324     rtsv7M4_T_le_v4SPD16_eabi.lib : trgdrv.obj (.text)
                  00005b78    00000308     PID.obj (.text)
                  00005e80    00000234     TachTimer.obj (.text)
                  000060b4    0000021c     DTC1200_pem4f.oem4f (.text:xdc_runtime_System_printfExtend__I)
                  000062d0    0000020c     drivers_tivaware.aem4f : UARTTiva.oem4f (.text:UARTTiva_open)
                  000064dc    00000004     driverlib.lib : i2c.obj (.text:I2CMasterDataGet)
                  000064e0    000001fc     sysbios.aem4f : BIOS.obj (.text:ti_sysbios_family_arm_m3_Hwi_excHandlerMax__I)
                  000066dc    000001f4     rtsv7M4_T_le_v4SPD16_eabi.lib : ull_div_t2.obj (.text)
                  000068d0    000001b6                                   : fd_add_t2.obj (.text)
                  00006a86    00000002     drivers_tivaware.aem4f : WatchdogTiva.oem4f (.text:WatchdogTiva_close)
                  00006a88    00000198     MotorDAC.obj (.text)
                  00006c20    00000174     sysbios.aem4f : BIOS.obj (.text:ti_sysbios_family_arm_m3_Hwi_excBusFault__I)
                  00006d94    00000004     driverlib.lib : i2c.obj (.text:I2CMasterDataPut)
                  00006d98    00000164     sysbios.aem4f : BIOS.obj (.text:ti_sysbios_family_arm_m3_Hwi_excUsageFault__I)
                  00006efc    00000150     drivers_tivaware.aem4f : GPIOTiva.oem4f (.text:GPIO_setConfig)
                  0000704c    00000004     driverlib.lib : qei.obj (.text:QEIIntClear)
                  00007050    00000148     sysbios.aem4f : BIOS.obj (.text:ti_sysbios_family_arm_m3_Hwi_excMemFault__I)
                  00007198    00000138                   : BIOS.obj (.text:ti_sysbios_knl_Semaphore_pend__E)
                  000072d0    00000136     rtsv7M4_T_le_v4SPD16_eabi.lib : fd_div_t2.obj (.text)
                  00007406    00000130     driverlib.lib : gpio.obj (.text:GPIOPadConfigSet)
                  00007536    00000002     rtsv7M4_T_le_v4SPD16_eabi.lib : i_div0.obj (.text)
                  00007538    0000011c     tty.obj (.text)
                  00007654    00000118     ti.targets.arm.rtsarm.aem4f : Error.oem4f (.text:xdc_runtime_Error_policyDefault__E)
                  0000776c    0000010c     driverlib.lib : sysctl.obj (.text:SysCtlClockGet)
                  00007878    00000108     sysbios.aem4f : BIOS.obj (.text:ti_sysbios_family_arm_lm4_Timer_start__E)
                  00007980    00000100     Boot.aem4f : Boot_sysctl.oem4f (.text:ti_catalog_arm_cortexm4_tiva_ce_Boot_sysCtlClockSetI__I)
                  00007a80    00000100     ti.targets.arm.rtsarm.aem4f : Core-mem.oem4f (.text:xdc_runtime_Core_createObject__I)
                  00007b80    000000fc     rtsv7M4_T_le_v4SPD16_eabi.lib : fd_mul_t2.obj (.text)
                  00007c7c    000000fc                                   : s_scalbn.obj (.text)
                  00007d78    000000f8     ti.targets.arm.rtsarm.aem4f : Startup.oem4f (.text:xdc_runtime_Startup_startMods__I)
                  00007e70    000000f4     sysbios.aem4f : m3_Hwi_asm.obj (.text:ti_sysbios_family_arm_m3_Hwi_dispatch__I)
                  00007f64    000000e0     drivers_tivaware.aem4f : I2CTiva.oem4f (.text:I2CTiva_open)
                  00008044    000000d8                            : SPITivaDMA.oem4f (.text:SPITivaDMA_open)
                  0000811c    000000d6                            : I2CTiva.oem4f (.text:I2CTiva_hwiFxn)
                  000081f2    00000006     driverlib.lib : gpio.obj (.text:GPIOIntClear)
                  000081f8    000000d4     sysbios.aem4f : BIOS.obj (.text:ti_sysbios_knl_Mailbox_Instance_init__E)
                  000082cc    00000004     driverlib.lib : qei.obj (.text:QEIVelocityGet)
                  000082d0    000000cc     sysbios.aem4f : BIOS.obj (.text:ti_sysbios_heaps_HeapMem_alloc__E)
                  0000839c    00000004     driverlib.lib : ssi.obj (.text:SSIIntClear)
                  000083a0    000000cc     sysbios.aem4f : BIOS.obj (.text:ti_sysbios_knl_Task_Instance_init__E)
                  0000846c    000000cc     ti.targets.arm.rtsarm.aem4f : Core-smem.oem4f (.text:xdc_runtime_Core_constructObject__I)
                  00008538    000000c8     sysbios.aem4f : BIOS.obj (.text:ti_sysbios_knl_Task_sleep__E)
                  00008600    000000c4     driverlib.lib : eeprom.obj (.text:EEPROMProgram)
                  000086c4    000000c0     drivers_tivaware.aem4f : SPITivaDMA.oem4f (.text:SPITivaDMA_configDMA)
                  00008784    00000004     driverlib.lib : timer.obj (.text:TimerIntClear)
                  00008788    000000bc     sysbios.aem4f : BIOS.obj (.text:ti_sysbios_family_arm_m3_Hwi_excDebugMon__I)
                  00008844    00000004     driverlib.lib : uart.obj (.text:UARTIntClear)
                  00008848    000000bc     sysbios.aem4f : BIOS.obj (.text:ti_sysbios_family_arm_m3_Hwi_excHardFault__I)
                  00008904    00000004     driverlib.lib : watchdog.obj (.text:WatchdogReloadSet)
                  00008908    000000bc     sysbios.aem4f : BIOS.obj (.text:ti_sysbios_knl_Task_Instance_finalize__E)
                  000089c4    00000004                   : BIOS.obj (.text:ti_sysbios_family_arm_lm4_Timer_masterEnable__I)
                  000089c8    000000b4                   : BIOS.obj (.text:ti_sysbios_knl_Task_checkStacks__E)
                  00008a7c    000000ac     drivers_tivaware.aem4f : UARTTiva.oem4f (.text:readTaskBlocking)
                  00008b28    000000ac     sysbios.aem4f : BIOS.obj (.text:ti_sysbios_family_arm_lm4_Timer_enableTiva__I)
                  00008bd4    000000a4     drivers_tivaware.aem4f : SPITivaDMA.oem4f (.text:SPITivaDMA_initHw)
                  00008c78    000000a0     auto_init.aem4f : auto_init.oem4f (.text)
                  00008d18    000000a0     ti.targets.arm.rtsarm.aem4f : Text.oem4f (.text:xdc_runtime_Text_putMod__E)
                  00008db8    0000009c     rtsv7M4_T_le_v4SPD16_eabi.lib : memcpy_t2.obj (.text)
                  00008e54    0000009a     drivers_tivaware.aem4f : WatchdogTiva.oem4f (.text:WatchdogTiva_open)
                  00008eee    00000002     DTC1200_pem4f.oem4f (.text:ti_sysbios_BIOS_nullFunc__I)
                  00008ef0    0000009a     ti.targets.arm.rtsarm.aem4f : Text.oem4f (.text:xdc_runtime_Text_putSite__E)
                  00008f8a    00000098     drivers_tivaware.aem4f : UARTTiva.oem4f (.text:UARTTiva_readPolling)
                  00009022    00000002     DTC1200_pem4f.oem4f (.text:xdc_runtime_Startup_reset__I)
                  00009024    00000098     Boot.aem4f : Boot.oem4f (.text:ti_catalog_arm_cortexm4_tiva_ce_Boot_sysCtlClockSet__E)
                  000090bc    00000094     drivers_tivaware.aem4f : UARTTiva.oem4f (.text:UARTTiva_write)
                  00009150    00000094     sysbios.aem4f : BIOS.obj (.text:ti_sysbios_family_arm_m3_Hwi_Instance_init__E)
                  000091e4    00000004     DTC1200_pem4f.oem4f (.text:ti_sysbios_family_arm_m3_TaskSupport_Module__startupDone__S)
                  000091e8    00000094     sysbios.aem4f : BIOS.obj (.text:ti_sysbios_family_arm_m3_Hwi_initNVIC__E)
                  0000927c    0000008c     drivers_tivaware.aem4f : GPIOTiva.oem4f (.text:GPIO_init)
                  00009308    0000008c                            : UARTTiva.oem4f (.text:UARTTiva_control)
                  00009394    0000008c     sysbios.aem4f : m3_TaskSupport_asm.obj (.text:ti_sysbios_family_arm_m3_TaskSupport_buildTaskStack)
                  00009420    0000008c                   : BIOS.obj (.text:ti_sysbios_knl_Task_postInit__I)
                  000094ac    0000008a     drivers_tivaware.aem4f : UARTTiva.oem4f (.text:readIsrTextBlocking)
                  00009536    00000002     --HOLE-- [fill = 0]
                  00009538    00000088     sysbios.aem4f : BIOS.obj (.text:ti_sysbios_knl_Mailbox_post__E)
                  000095c0    00000086     rtsv7M4_T_le_v4SPD16_eabi.lib : fd_cmp_t2.obj (.text:__aeabi_cdcmple)
                  00009646    00000086                                   : fd_cmp_t2.obj (.text:__aeabi_cdrcmple)
                  000096cc    00000004     ti.targets.arm.rtsarm.aem4f : Error.oem4f (.text:xdc_runtime_Error_getSite__E)
                  000096d0    00000084     sysbios.aem4f : BIOS.obj (.text:ti_sysbios_family_arm_m3_Hwi_postInit__I)
                  00009754    00000084     driverlib.lib : udma.obj (.text:uDMAChannelTransferSet)
                  000097d8    00000082     drivers_tivaware.aem4f : UARTTiva.oem4f (.text:readIsrTextCallback)
                  0000985a    0000007e                            : I2CTiva.oem4f (.text:I2CTiva_transfer)
                  000098d8    0000007c     sysbios.aem4f : BIOS.obj (.text:ti_sysbios_heaps_HeapMem_free__E)
                  00009954    0000007a     driverlib.lib : adc.obj (.text:ADCSequenceStepConfigure)
                  000099ce    0000007a     drivers_tivaware.aem4f : UARTTiva.oem4f (.text:readTaskCallback)
                  00009a48    0000007a     rtsv7M4_T_le_v4SPD16_eabi.lib : memset_t2.obj (.text)
                  00009ac2    00000006     driverlib.lib : gpio.obj (.text:GPIOPinWrite)
                  00009ac8    00000074     sysbios.aem4f : BIOS.obj (.text:ti_sysbios_knl_Mailbox_pend__E)
                  00009b3c    00000004     ti.targets.arm.rtsarm.aem4f : System.oem4f (.text:xdc_runtime_System_aprintf_va__F)
                  00009b40    00000070     sysbios.aem4f : BIOS.obj (.text:ti_sysbios_knl_Mailbox_Instance_finalize__E)
                  00009bb0    00000070                   : BIOS.obj (.text:ti_sysbios_knl_Semaphore_post__E)
                  00009c20    00000070                   : BIOS.obj (.text:ti_sysbios_knl_Task_exit__E)
                  00009c90    0000006d     ti.targets.arm.rtsarm.aem4f : System.oem4f (.text:xdc_runtime_System_formatNum__I)
                  00009cfd    00000003     --HOLE-- [fill = 0]
                  00009d00    0000006c     sysbios.aem4f : BIOS.obj (.text:ti_sysbios_knl_Clock_workFunc__E)
                  00009d6c    00000004     ti.targets.arm.rtsarm.aem4f : System.oem4f (.text:xdc_runtime_System_printf_va__F)
                  00009d70    0000006c     sysbios.aem4f : BIOS.obj (.text:ti_sysbios_knl_Swi_restoreHwi__E)
                  00009ddc    0000006c     drivers_tivaware.aem4f : UARTTiva.oem4f (.text:writeData)
                  00009e48    0000006c     ti.targets.arm.rtsarm.aem4f : Error.oem4f (.text:xdc_runtime_Error_print__E)
                  00009eb4    0000006c                                 : Memory.oem4f (.text:xdc_runtime_Memory_alloc__E)
                  00009f20    00000068     rtsv7M4_T_le_v4SPD16_eabi.lib : copy_decompress_lzss.obj (.text:decompress:lzss)
                  00009f88    00000068                                   : trgmsg.obj (.text)
                  00009ff0    00000068     DTC1200_pem4f.oem4f (.text:ti_sysbios_family_arm_m3_Hwi_create)
                  0000a058    00000068     DTC1200_pem4f.oem4f (.text:ti_sysbios_knl_Mailbox_create)
                  0000a0c0    00000066     ti.targets.arm.rtsarm.aem4f : Core-mem.oem4f (.text:xdc_runtime_Core_deleteObject__I)
                  0000a126    00000002     --HOLE-- [fill = 0]
                  0000a128    00000064     drivers_tivaware.aem4f : GPIOTiva.oem4f (.text:GPIO_hwiIntFxn)
                  0000a18c    00000064     rtsv7M4_T_le_v4SPD16_eabi.lib : s_frexp.obj (.text)
                  0000a1f0    00000064     sysbios.aem4f : BIOS.obj (.text:ti_sysbios_family_arm_lm4_Timer_Module_startup__E)
                  0000a254    00000004     --HOLE-- [fill = 0]
                  0000a258    00000064                   : BIOS.obj (.text:ti_sysbios_family_arm_m3_Hwi_dispatchC__I)
                  0000a2bc    00000064     DTC1200_pem4f.oem4f (.text:ti_sysbios_knl_Task_create)
                  0000a320    00000062     drivers_tivaware.aem4f : I2CTiva.oem4f (.text:I2CTiva_primeTransfer)
                  0000a382    00000062                            : SPITivaDMA.oem4f (.text:SPITivaDMA_transfer)
                  0000a3e4    00000060     driverlib.lib : timer.obj (.text:TimerConfigure)
                  0000a444    00000060     rtsv7M4_T_le_v4SPD16_eabi.lib : sprintf.obj (.text)
                  0000a4a4    00000004     --HOLE-- [fill = 0]
                  0000a4a8    00000060     sysbios.aem4f : BIOS.obj (.text:ti_sysbios_knl_Task_schedule__I)
                  0000a508    0000005e     drivers_tivaware.aem4f : UARTTiva.oem4f (.text:readIsrBinaryBlocking)
                  0000a566    00000002     --HOLE-- [fill = 0]
                  0000a568    0000005c     sysbios.aem4f : BIOS.obj (.text:ti_sysbios_knl_Swi_run__I)
                  0000a5c4    00000004     --HOLE-- [fill = 0]
                  0000a5c8    0000005c                   : BIOS.obj (.text:ti_sysbios_knl_Swi_schedule__I)
                  0000a624    00000004     --HOLE-- [fill = 0]
                  0000a628    0000005c                   : BIOS.obj (.text:ti_sysbios_knl_Task_Module_startup__E)
                  0000a684    00000004     --HOLE-- [fill = 0]
                  0000a688    0000005c                   : BIOS.obj (.text:ti_sysbios_knl_Task_startCore__E)
                  0000a6e4    0000005b     ti.targets.arm.rtsarm.aem4f : Text.oem4f (.text:xdc_runtime_Text_putLab__E)
                  0000a73f    00000001     --HOLE-- [fill = 0]
                  0000a740    00000058     boot.aem4f : boot.oem4f (.text)
                  0000a798    00000058     DTC1200_pem4f.oem4f (.text:ti_sysbios_family_arm_m3_Hwi_construct)
                  0000a7f0    00000058     sysbios.aem4f : m3_Hwi_asm_switch.obj (.text:ti_sysbios_family_arm_m3_Hwi_initStacks__E)
                  0000a848    00000056     driverlib.lib : gpio.obj (.text:GPIOIntTypeSet)
                  0000a89e    00000054     drivers_tivaware.aem4f : UARTTiva.oem4f (.text:readIsrBinaryCallback)
                  0000a8f2    00000002     --HOLE-- [fill = 0]
                  0000a8f4    00000054     rtsv7M4_T_le_v4SPD16_eabi.lib : exit.obj (.text)
                  0000a948    00000054                                   : ltoa.obj (.text)
                  0000a99c    00000004     --HOLE-- [fill = 0]
                  0000a9a0    00000054     sysbios.aem4f : BIOS.obj (.text:ti_sysbios_family_arm_lm4_Timer_initDevice__I)
                  0000a9f4    00000054     ti.targets.arm.rtsarm.aem4f : Assert.oem4f (.text:xdc_runtime_Assert_raise__I)
                  0000aa48    00000050     drivers_tivaware.aem4f : GPIOTiva.oem4f (.text:GPIO_setCallback)
                  0000aa98    00000050                            : GPIOTiva.oem4f (.text:GPIO_write)
                  0000aae8    00000050     driverlib.lib : sysctl.obj (.text:SysCtlPeripheralReset)
                  0000ab38    00000050     drivers_tivaware.aem4f : UARTTiva.oem4f (.text:UARTTiva_writeCancel)
                  0000ab88    00000050     sysbios.aem4f : BIOS.obj (.text:ti_sysbios_family_arm_m3_Hwi_Module_startup__E)
                  0000abd8    00000050                   : BIOS.obj (.text:ti_sysbios_knl_Clock_Instance_init__E)
                  0000ac28    00000050     ti.targets.arm.rtsarm.aem4f : Startup.oem4f (.text:xdc_runtime_Startup_exec__E)
                  0000ac78    00000050                                 : Text.oem4f (.text:xdc_runtime_Text_visitRope2__I)
                  0000acc8    0000004c     drivers_tivaware.aem4f : UARTTiva.oem4f (.text:UARTTiva_close)
                  0000ad14    0000004c     rtsv7M4_T_le_v4SPD16_eabi.lib : atoi.obj (.text)
                  0000ad60    0000004c                                   : atol.obj (.text)
                  0000adac    0000004c                                   : cpy_tbl.obj (.text)
                  0000adf8    0000004c     sysbios.aem4f : BIOS.obj (.text:ti_sysbios_heaps_HeapMem_getStats__E)
                  0000ae44    00000004     --HOLE-- [fill = 0]
                  0000ae48    0000004c                   : BIOS.obj (.text:ti_sysbios_knl_Swi_runLoop__I)
                  0000ae94    00000004     --HOLE-- [fill = 0]
                  0000ae98    0000004c                   : BIOS.obj (.text:ti_sysbios_knl_Task_allBlockedFunction__I)
                  0000aee4    00000048     driverlib.lib : gpio.obj (.text:GPIOPinConfigure)
                  0000af2c    00000048                   : i2c.obj (.text:I2CMasterInitExpClk)
                  0000af74    00000048     rtsv7M4_T_le_v4SPD16_eabi.lib : fd_toi_t2.obj (.text)
                  0000afbc    00000048                                   : vsprintf.obj (.text)
                  0000b004    00000004     --HOLE-- [fill = 0]
                  0000b008    00000048     sysbios.aem4f : BIOS.obj (.text:ti_sysbios_family_arm_lm4_Timer_enableTimers__I)
                  0000b050    00000048                   : BIOS.obj (.text:ti_sysbios_family_arm_m3_Hwi_disableInterrupt__E)
                  0000b098    00000048                   : BIOS.obj (.text:ti_sysbios_family_arm_m3_Hwi_enableInterrupt__E)
                  0000b0e0    00000048                   : BIOS.obj (.text:ti_sysbios_family_arm_m3_Hwi_excReserved__I)
                  0000b128    00000048                   : BIOS.obj (.text:ti_sysbios_knl_Mailbox_Module_startup__E)
                  0000b170    00000046     drivers_tivaware.aem4f : RingBuf.oem4f (.text:RingBuf_put)
                  0000b1b6    00000046     ti.targets.arm.rtsarm.aem4f : Core-params.oem4f (.text:xdc_runtime_Core_assignParams__I)
                  0000b1fc    00000044     drivers_tivaware.aem4f : SPITivaDMA.oem4f (.text:SPITivaDMA_hwiFxn)
                  0000b240    00000044     sysbios.aem4f : BIOS.obj (.text:ti_sysbios_family_arm_lm4_Timer_isrStub__E)
                  0000b284    00000004     --HOLE-- [fill = 0]
                  0000b288    00000044                   : BIOS.obj (.text:ti_sysbios_family_arm_m3_Hwi_getStackInfo__E)
                  0000b2cc    00000004     --HOLE-- [fill = 0]
                  0000b2d0    00000044                   : BIOS.obj (.text:ti_sysbios_knl_Swi_post__E)
                  0000b314    00000044     ti.targets.arm.rtsarm.aem4f : Error.oem4f (.text:xdc_runtime_Error_setX__E)
                  0000b358    00000044                                 : SysMin.oem4f (.text:xdc_runtime_SysMin_flush__E)
                  0000b39c    00000044                                 : Text.oem4f (.text:xdc_runtime_Text_xprintf__I)
                  0000b3e0    00000042     drivers_tivaware.aem4f : SPITivaDMA.oem4f (.text:SPITivaDMA_transferCancel)
                  0000b422    00000042     driverlib.lib : uart.obj (.text:UARTConfigSetExpClk)
                  0000b464    00000042     drivers_tivaware.aem4f : UARTTiva.oem4f (.text:UARTTiva_hwiIntFxn)
                  0000b4a6    00000042                            : UARTTiva.oem4f (.text:UARTTiva_writePolling)
                  0000b4e8    00000040     driverlib.lib : eeprom.obj (.text:EEPROMInit)
                  0000b528    00000040     drivers_tivaware.aem4f : RingBuf.oem4f (.text:RingBuf_get)
                  0000b568    00000040                            : UARTTiva.oem4f (.text:UARTTiva_read)
                  0000b5a8    00000040     rtsv7M4_T_le_v4SPD16_eabi.lib : u_divt2.obj (.text)
                  0000b5e8    00000040     sysbios.aem4f : BIOS.obj (.text:ti_sysbios_family_arm_lm4_Timer_startup__E)
                  0000b628    00000040     DTC1200_pem4f.oem4f (.text:ti_sysbios_family_arm_m3_Hwi_Object__get__S)
                  0000b668    00000040     DTC1200_pem4f.oem4f (.text:ti_sysbios_gates_GateHwi_Object__create__S)
                  0000b6a8    00000040     DTC1200_pem4f.oem4f (.text:ti_sysbios_gates_GateMutex_Object__create__S)
                  0000b6e8    00000040     sysbios.aem4f : BIOS.obj (.text:ti_sysbios_heaps_HeapMem_Instance_init__E)
                  0000b728    00000040     DTC1200_pem4f.oem4f (.text:ti_sysbios_heaps_HeapMem_Object__create__S)
                  0000b768    00000040     DTC1200_pem4f.oem4f (.text:ti_sysbios_heaps_HeapMem_Object__get__S)
                  0000b7a8    00000040     DTC1200_pem4f.oem4f (.text:ti_sysbios_knl_Mailbox_Object__get__S)
                  0000b7e8    00000040     DTC1200_pem4f.oem4f (.text:ti_sysbios_knl_Semaphore_create)
                  0000b828    00000040     DTC1200_pem4f.oem4f (.text:ti_sysbios_knl_Swi_Object__get__S)
                  0000b868    0000003e     driverlib.lib : adc.obj (.text:ADCSequenceConfigure)
                  0000b8a6    0000003e     DTC1200_pem4f.oem4f (.text:xdc_runtime_SysMin_output__I)
                  0000b8e4    0000003c     drivers_tivaware.aem4f : SPITivaDMA.oem4f (.text:SPITivaDMA_close)
                  0000b920    0000003c     driverlib.lib : ssi.obj (.text:SSIConfigSetExpClk)
                  0000b95c    0000003c                   : eeprom.obj (.text:_EEPROMSectorMaskSet)
                  0000b998    0000003c     sysbios.aem4f : BIOS.obj (.text:ti_sysbios_family_arm_m3_Hwi_excSvCall__I)
                  0000b9d4    00000004     --HOLE-- [fill = 0]
                  0000b9d8    0000003c                   : BIOS.obj (.text:ti_sysbios_heaps_HeapMem_init__I)
                  0000ba14    00000004     --HOLE-- [fill = 0]
                  0000ba18    0000003c                   : BIOS.obj (.text:ti_sysbios_knl_Swi_restore__E)
                  0000ba54    0000003c     DTC1200_pem4f.oem4f (.text:ti_sysbios_knl_Task_Object__get__S)
                  0000ba90    0000003a     drivers_tivaware.aem4f : I2CTiva.oem4f (.text:I2CTiva_completeTransfer)
                  0000baca    00000002     --HOLE-- [fill = 0]
                  0000bacc    00000038                            : I2C.oem4f (.text:I2C_init)
                  0000bb04    00000038                            : SPI.oem4f (.text:SPI_init)
                  0000bb3c    00000038                            : UART.oem4f (.text:UART_init)
                  0000bb74    00000038                            : Watchdog.oem4f (.text:Watchdog_init)
                  0000bbac    00000004     --HOLE-- [fill = 0]
                  0000bbb0    00000038     sysbios.aem4f : BIOS.obj (.text:ti_sysbios_family_arm_m3_Hwi_excNoIsr__I)
                  0000bbe8    00000038     DTC1200_pem4f.oem4f (.text:ti_sysbios_knl_Clock_construct)
                  0000bc20    00000038     DTC1200_pem4f.oem4f (.text:ti_sysbios_knl_Clock_doTick__I)
                  0000bc58    00000038     DTC1200_pem4f.oem4f (.text:ti_sysbios_knl_Queue_Object__get__S)
                  0000bc90    00000038     sysbios.aem4f : BIOS.obj (.text:ti_sysbios_knl_Task_processVitalTaskFlag__I)
                  0000bcc8    00000038     ti.targets.arm.rtsarm.aem4f : SysMin.oem4f (.text:xdc_runtime_SysMin_putch__E)
                  0000bd00    00000038                                 : System.oem4f (.text:xdc_runtime_System_atexit__E)
                  0000bd38    00000036     drivers_tivaware.aem4f : I2CTiva.oem4f (.text:I2CTiva_close)
                  0000bd6e    00000036                            : UARTTiva.oem4f (.text:UARTTiva_readCancel)
                  0000bda4    00000036     rtsv7M4_T_le_v4SPD16_eabi.lib : strncpy.obj (.text)
                  0000bdda    00000002     --HOLE-- [fill = 0]
                  0000bddc    00000034     driverlib.lib : eeprom.obj (.text:EEPROMRead)
                  0000be10    00000034                   : sysctl.obj (.text:SysCtlPeripheralEnable)
                  0000be44    00000034                   : eeprom.obj (.text:_EEPROMSectorMaskClear)
                  0000be78    00000034     sysbios.aem4f : BIOS.obj (.text:ti_sysbios_family_arm_m3_Hwi_Instance_finalize__E)
                  0000beac    00000004     --HOLE-- [fill = 0]
                  0000beb0    00000034                   : BIOS.obj (.text:ti_sysbios_family_arm_m3_Hwi_excNmi__I)
                  0000bee4    00000004     --HOLE-- [fill = 0]
                  0000bee8    00000034                   : BIOS.obj (.text:ti_sysbios_hal_Hwi_checkStack)
                  0000bf1c    00000034     DTC1200_pem4f.oem4f (.text:ti_sysbios_knl_Semaphore_construct)
                  0000bf50    00000034     ti.targets.arm.rtsarm.aem4f : Core-label.oem4f (.text:xdc_runtime_Core_assignLabel__I)
                  0000bf84    00000033                                 : Text.oem4f (.text:xdc_runtime_Text_printVisFxn__I)
                  0000bfb7    00000001     --HOLE-- [fill = 0]
                  0000bfb8    00000032     sysbios.aem4f : BIOS.obj (.text:ti_sysbios_hal_Hwi_initStack)
                  0000bfea    00000002     --HOLE-- [fill = 0]
                  0000bfec    00000030     drivers_tivaware.aem4f : I2C.oem4f (.text:I2C_open)
                  0000c01c    00000030                            : SPI.oem4f (.text:SPI_open)
                  0000c04c    00000030                            : UART.oem4f (.text:UART_open)
                  0000c07c    00000030     DTC1200_pem4f.oem4f (.text:ti_sysbios_BIOS_atExitFunc__I)
                  0000c0ac    00000030     DTC1200_pem4f.oem4f (.text:ti_sysbios_BIOS_errorRaiseHook__I)
                  0000c0dc    00000030     DTC1200_pem4f.oem4f (.text:ti_sysbios_BIOS_rtsLock__I)
                  0000c10c    00000004     --HOLE-- [fill = 0]
                  0000c110    00000030     sysbios.aem4f : BIOS.obj (.text:ti_sysbios_family_arm_lm4_Timer_stop__E)
                  0000c140    00000030                   : BIOS.obj (.text:ti_sysbios_family_arm_m3_TaskSupport_start__E)
                  0000c170    00000030                   : BIOS.obj (.text:ti_sysbios_gates_GateMutex_enter__E)
                  0000c1a0    00000030                   : BIOS.obj (.text:ti_sysbios_knl_Mailbox_postInit__I)
                  0000c1d0    00000030     DTC1200_pem4f.oem4f (.text:ti_sysbios_knl_Queue_construct)
                  0000c200    00000030     sysbios.aem4f : BIOS.obj (.text:ti_sysbios_knl_Semaphore_pendTimeout__I)
                  0000c230    00000030                   : BIOS.obj (.text:ti_sysbios_knl_Task_unblockI__E)
                  0000c260    00000030     ti.targets.arm.rtsarm.aem4f : SysMin.oem4f (.text:xdc_runtime_SysMin_abort__E)
                  0000c290    00000030                                 : System.oem4f (.text:xdc_runtime_System_processAtExit__E)
                  0000c2c0    0000002e     driverlib.lib : adc.obj (.text:ADCIntStatus)
                  0000c2ee    0000002e     rtsv7M4_T_le_v4SPD16_eabi.lib : i_tofd_t2.obj (.text)
                  0000c31c    0000002c     DTC1200_pem4f.oem4f (.text:ti_sysbios_BIOS_rtsUnlock__I)
                  0000c348    0000002c     DTC1200_pem4f.oem4f (.text:ti_sysbios_family_arm_m3_Hwi_Params__init__S)
                  0000c374    0000002c     DTC1200_pem4f.oem4f (.text:ti_sysbios_knl_Clock_Params__init__S)
                  0000c3a0    0000002c     DTC1200_pem4f.oem4f (.text:ti_sysbios_knl_Mailbox_Params__init__S)
                  0000c3cc    0000002c     DTC1200_pem4f.oem4f (.text:ti_sysbios_knl_Semaphore_Params__init__S)
                  0000c3f8    0000002c     DTC1200_pem4f.oem4f (.text:ti_sysbios_knl_Task_Params__init__S)
                  0000c424    00000004     --HOLE-- [fill = 0]
                  0000c428    0000002c     sysbios.aem4f : BIOS.obj (.text:ti_sysbios_knl_Task_restore__E)
                  0000c454    0000002c     driverlib.lib : udma.obj (.text:uDMAChannelAssign)
                  0000c480    0000002c     ti.targets.arm.rtsarm.aem4f : Text.oem4f (.text:xdc_runtime_Text_cordText__E)
                  0000c4ac    0000002a     driverlib.lib : gpio.obj (.text:GPIODirModeSet)
                  0000c4d6    0000002a     ti.targets.arm.rtsarm.aem4f : System.oem4f (.text:xdc_runtime_System_putchar__I)
                  0000c500    00000028     DTC1200_pem4f.oem4f (.text:ti_sysbios_gates_GateMutex_Object__delete__S)
                  0000c528    00000028     sysbios.aem4f : BIOS.obj (.text:ti_sysbios_knl_Clock_addI__E)
                  0000c550    00000028                   : BIOS.obj (.text:ti_sysbios_knl_Swi_Module_startup__E)
                  0000c578    00000028     DTC1200_pem4f.oem4f (.text:xdc_runtime_System_aprintf__E)
                  0000c5a0    00000028     DTC1200_pem4f.oem4f (.text:xdc_runtime_System_printf__E)
                  0000c5c8    00000026     sysbios.aem4f : m3_Hwi_asm.obj (.text:ti_sysbios_family_arm_m3_Hwi_pendSV__I)
                  0000c5ee    00000026     ti.targets.arm.rtsarm.aem4f : System.oem4f (.text:xdc_runtime_System_avprintf__E)
                  0000c614    00000024     DTC1200_pem4f.oem4f (.text:ti_sysbios_BIOS_registerRTSLock__I)
                  0000c638    00000024     DTC1200_pem4f.oem4f (.text:ti_sysbios_BIOS_startFunc__I)
                  0000c65c    00000024     DTC1200_pem4f.oem4f (.text:ti_sysbios_gates_GateHwi_Object__delete__S)
                  0000c680    00000024     DTC1200_pem4f.oem4f (.text:ti_sysbios_heaps_HeapMem_Object__delete__S)
                  0000c6a4    00000004     --HOLE-- [fill = 0]
                  0000c6a8    00000024     sysbios.aem4f : BIOS.obj (.text:ti_sysbios_knl_Clock_Module_startup__E)
                  0000c6cc    00000004     --HOLE-- [fill = 0]
                  0000c6d0    00000024                   : BIOS.obj (.text:ti_sysbios_knl_Clock_start__E)
                  0000c6f4    00000004     --HOLE-- [fill = 0]
                  0000c6f8    00000024                   : BIOS.obj (.text:ti_sysbios_knl_Semaphore_Instance_init__E)
                  0000c71c    00000004     --HOLE-- [fill = 0]
                  0000c720    00000024                   : BIOS.obj (.text:ti_sysbios_knl_Task_restoreHwi__E)
                  0000c744    00000024     driverlib.lib : udma.obj (.text:uDMAChannelControlSet)
                  0000c768    00000024     ti.targets.arm.rtsarm.aem4f : System.oem4f (.text:xdc_runtime_System_vprintf__E)
                  0000c78c    00000004     --HOLE-- [fill = 0]
                  0000c790    00000022     sysbios.aem4f : BIOS.obj (.text:ti_sysbios_family_arm_lm4_Timer_write__I)
                  0000c7b2    00000022     DTC1200_pem4f.oem4f (.text:ti_sysbios_family_arm_m3_Hwi_Handle__label__S)
                  0000c7d4    00000022     DTC1200_pem4f.oem4f (.text:ti_sysbios_gates_GateHwi_Handle__label__S)
                  0000c7f6    00000022     DTC1200_pem4f.oem4f (.text:ti_sysbios_gates_GateMutex_Handle__label__S)
                  0000c818    00000022     DTC1200_pem4f.oem4f (.text:ti_sysbios_heaps_HeapMem_Handle__label__S)
                  0000c83a    00000022     DTC1200_pem4f.oem4f (.text:ti_sysbios_knl_Swi_Handle__label__S)
                  0000c85c    00000022     DTC1200_pem4f.oem4f (.text:ti_sysbios_knl_Task_Handle__label__S)
                  0000c87e    00000002     --HOLE-- [fill = 0]
                  0000c880    00000020     DTC1200_pem4f.oem4f (.text:ti_sysbios_BIOS_removeRTSLock__I)
                  0000c8a0    00000020     DTC1200_pem4f.oem4f (.text:ti_sysbios_family_arm_m3_Hwi_Object__destruct__S)
                  0000c8c0    00000020     sysbios.aem4f : BIOS.obj (.text:ti_sysbios_family_arm_m3_Hwi_clearInterrupt__E)
                  0000c8e0    00000020                   : m3_Hwi_asm.obj (.text:ti_sysbios_family_arm_m3_Hwi_excHandlerAsm__I)
                  0000c900    00000020                   : BIOS.obj (.text:ti_sysbios_family_arm_m3_Hwi_excHandler__I)
                  0000c920    00000020     DTC1200_pem4f.oem4f (.text:ti_sysbios_knl_Clock_Object__destruct__S)
                  0000c940    00000020     sysbios.aem4f : BIOS.obj (.text:ti_sysbios_knl_Idle_run__E)
                  0000c960    00000020     DTC1200_pem4f.oem4f (.text:ti_sysbios_knl_Semaphore_Object__destruct__S)
                  0000c980    00000020     DTC1200_pem4f.oem4f (.text:xdc_runtime_IHeap_alloc)
                  0000c9a0    00000020     ti.targets.arm.rtsarm.aem4f : Registry.oem4f (.text:xdc_runtime_Registry_findById__E)
                  0000c9c0    00000020                                 : SysMin.oem4f (.text:xdc_runtime_SysMin_Module_startup__E)
                  0000c9e0    00000020     DTC1200_pem4f.oem4f (.text:xdc_runtime_Text_visitRope__I)
                  0000ca00    0000001e     driverlib.lib : adc.obj (.text:ADCSequenceDataGet)
                  0000ca1e    0000001e     sysbios.aem4f : m3_Hwi_asm_switch.obj (.text:ti_sysbios_family_xxx_Hwi_switchAndRunFunc)
                  0000ca3c    0000001e     DTC1200_pem4f.oem4f (.text:ti_sysbios_knl_Task_SupportProxy_start__E)
                  0000ca5a    0000001e     DTC1200_pem4f.oem4f (.text:xdc_runtime_Memory_HeapProxy_alloc__E)
                  0000ca78    0000001c     driverlib.lib : uart.obj (.text:UARTDisable)
                  0000ca94    0000001c     drivers_tivaware.aem4f : WatchdogTiva.oem4f (.text:WatchdogTiva_setReload)
                  0000cab0    0000001c                            : GPIOTiva.oem4f (.text:getGpioIntIndex)
                  0000cacc    0000001c     rtsv7M4_T_le_v4SPD16_eabi.lib : memccpy.obj (.text)
                  0000cae8    0000001c     DTC1200_pem4f.oem4f (.text:ti_sysbios_family_arm_lm4_Timer_Module__startupDone__F)
                  0000cb04    0000001c     DTC1200_pem4f.oem4f (.text:ti_sysbios_family_arm_m3_Hwi_Module__startupDone__F)
                  0000cb20    0000001c     sysbios.aem4f : BIOS.obj (.text:ti_sysbios_gates_GateMutex_Instance_init__E)
                  0000cb3c    00000004     --HOLE-- [fill = 0]
                  0000cb40    0000001c                   : BIOS.obj (.text:ti_sysbios_knl_Clock_Instance_finalize__E)
                  0000cb5c    0000001c     DTC1200_pem4f.oem4f (.text:ti_sysbios_knl_Queue_Object__destruct__S)
                  0000cb78    0000001c     sysbios.aem4f : BIOS.obj (.text:ti_sysbios_knl_Queue_get__E)
                  0000cb94    00000004     --HOLE-- [fill = 0]
                  0000cb98    0000001c                   : BIOS.obj (.text:ti_sysbios_knl_Queue_put__E)
                  0000cbb4    00000004     --HOLE-- [fill = 0]
                  0000cbb8    0000001c                   : BIOS.obj (.text:ti_sysbios_knl_Task_enter__I)
                  0000cbd4    0000001c     ti.targets.arm.rtsarm.aem4f : Error.oem4f (.text:xdc_runtime_Error_raiseX__E)
                  0000cbf0    0000001c                                 : Memory.oem4f (.text:xdc_runtime_Memory_valloc__E)
                  0000cc0c    0000001c     DTC1200_pem4f.oem4f (.text:xdc_runtime_Startup_exec__I)
                  0000cc28    0000001c     ti.targets.arm.rtsarm.aem4f : SysMin.oem4f (.text:xdc_runtime_SysMin_exit__E)
                  0000cc44    0000001c                                 : System.oem4f (.text:xdc_runtime_System_abort__E)
                  0000cc60    0000001a     DTC1200_pem4f.oem4f (.text:xdc_runtime_IHeap_free)
                  0000cc7a    00000018     driverlib.lib : adc.obj (.text:ADCProcessorTrigger)
                  0000cc92    00000018                   : gpio.obj (.text:GPIOPinTypeGPIOOutput)
                  0000ccaa    00000002     --HOLE-- [fill = 0]
                  0000ccac    00000018     drivers_tivaware.aem4f : UART.oem4f (.text:UART_Params_init)
                  0000ccc4    00000018     rtsv7M4_T_le_v4SPD16_eabi.lib : args_main.obj (.text)
                  0000ccdc    00000018                                   : strcmp.obj (.text)
                  0000ccf4    00000004     --HOLE-- [fill = 0]
                  0000ccf8    00000018     sysbios.aem4f : BIOS.obj (.text:ti_sysbios_family_arm_m3_Hwi_plug__E)
                  0000cd10    00000018                   : m3_TaskSupport_asm.obj (.text:ti_sysbios_family_arm_m3_TaskSupport_swap__E)
                  0000cd28    00000018                   : BIOS.obj (.text:ti_sysbios_gates_GateMutex_leave__E)
                  0000cd40    00000018                   : BIOS.obj (.text:ti_sysbios_knl_Task_sleepTimeout__I)
                  0000cd58    00000018     driverlib.lib : udma.obj (.text:uDMAChannelDisable)
                  0000cd70    00000018                   : udma.obj (.text:uDMAChannelEnable)
                  0000cd88    00000018                   : udma.obj (.text:uDMAChannelIsEnabled)
                  0000cda0    00000018     ti.targets.arm.rtsarm.aem4f : Error.oem4f (.text:xdc_runtime_Error_check__E)
                  0000cdb8    00000018                                 : System.oem4f (.text:xdc_runtime_System_exit__E)
                  0000cdd0    00000018                                 : Text.oem4f (.text:xdc_runtime_Text_ropeText__E)
                  0000cde8    00000016     driverlib.lib : i2c.obj (.text:I2CMasterErr)
                  0000cdfe    00000016                   : timer.obj (.text:TimerControlEvent)
                  0000ce14    00000016     rtsv7M4_T_le_v4SPD16_eabi.lib : strchr.obj (.text)
                  0000ce2a    00000016     DTC1200_pem4f.oem4f (.text:ti_sysbios_BIOS_exitFunc__I)
                  0000ce40    00000016     sysbios.aem4f : BIOS.obj (.text:ti_sysbios_knl_Task_unblock__E)
                  0000ce56    00000002     --HOLE-- [fill = 0]
                  0000ce58    00000014     driverlib.lib : eeprom.obj (.text:EEPROMSizeGet)
                  0000ce6c    00000014     drivers_tivaware.aem4f : SPI.oem4f (.text:SPI_Params_init)
                  0000ce80    00000014     driverlib.lib : uart.obj (.text:UARTEnable)
                  0000ce94    00000014     rtsv7M4_T_le_v4SPD16_eabi.lib : _lock.obj (.text)
                  0000cea8    00000014                                   : s_copysign.obj (.text)
                  0000cebc    00000014                                   : strcpy.obj (.text)
                  0000ced0    00000014                                   : strlen.obj (.text)
                  0000cee4    00000004     --HOLE-- [fill = 0]
                  0000cee8    00000014     sysbios.aem4f : BIOS.obj (.text:ti_sysbios_family_arm_m3_Hwi_switchFromBootStack__E)
                  0000cefc    00000014     DTC1200_pem4f.oem4f (.text:ti_sysbios_hal_Hwi_HwiProxy_getStackInfo__E)
                  0000cf10    00000014     DTC1200_pem4f.oem4f (.text:ti_sysbios_knl_Clock_Module_State_clockQ)
                  0000cf24    00000014     DTC1200_pem4f.oem4f (.text:xdc_runtime_Memory_HeapProxy_free__E)
                  0000cf38    00000012     driverlib.lib : gpio.obj (.text:GPIOPinTypeADC)
                  0000cf4a    00000012                   : gpio.obj (.text:GPIOPinTypeGPIOInput)
                  0000cf5c    00000012                   : gpio.obj (.text:GPIOPinTypeI2C)
                  0000cf6e    00000012                   : gpio.obj (.text:GPIOPinTypeI2CSCL)
                  0000cf80    00000012                   : gpio.obj (.text:GPIOPinTypeQEI)
                  0000cf92    00000012                   : gpio.obj (.text:GPIOPinTypeSSI)
                  0000cfa4    00000012                   : gpio.obj (.text:GPIOPinTypeTimer)
                  0000cfb6    00000012                   : gpio.obj (.text:GPIOPinTypeUART)
                  0000cfc8    00000012     drivers_tivaware.aem4f : RingBuf.oem4f (.text:RingBuf_construct)
                  0000cfda    00000012     driverlib.lib : ssi.obj (.text:SSIDataGetNonBlocking)
                  0000cfec    00000012                   : timer.obj (.text:TimerLoadSet)
                  0000cffe    00000012                   : timer.obj (.text:TimerMatchSet)
                  0000d010    00000012                   : timer.obj (.text:TimerPrescaleSet)
                  0000d022    00000006                   : i2c.obj (.text:I2CMasterIntDisable)
                  0000d028    00000012     sysbios.aem4f : BIOS.obj (.text:ti_sysbios_hal_Hwi_Module_startup__E)
                  0000d03a    00000002     --HOLE-- [fill = 0]
                  0000d03c    00000010     DTC1200_pem4f.oem4f (.text:.bootCodeSection:ti_catalog_arm_cortexm4_tiva_ce_Boot_init__I)
                  0000d04c    00000010     drivers_tivaware.aem4f : I2C.oem4f (.text:I2C_Params_init)
                  0000d05c    00000010     driverlib.lib : interrupt.obj (.text:IntMasterDisable)
                  0000d06c    00000010                   : interrupt.obj (.text:IntMasterEnable)
                  0000d07c    00000010                   : qei.obj (.text:QEIVelocityConfigure)
                  0000d08c    00000010                   : eeprom.obj (.text:_EEPROMWaitForDone)
                  0000d09c    00000010     drivers_tivaware.aem4f : UARTTiva.oem4f (.text:readBlockingTimeout)
                  0000d0ac    00000010     rtsv7M4_T_le_v4SPD16_eabi.lib : isalpha.obj (.text)
                  0000d0bc    00000010                                   : isdigit.obj (.text)
                  0000d0cc    00000010                                   : tolower.obj (.text)
                  0000d0dc    00000010                                   : toupper.obj (.text)
                  0000d0ec    00000010     DTC1200_pem4f.oem4f (.text:ti_sysbios_BIOS_RtsGateProxy_leave__E)
                  0000d0fc    00000004     --HOLE-- [fill = 0]
                  0000d100    00000010     sysbios.aem4f : BIOS.obj (.text:ti_sysbios_BIOS_getCpuFreq__E)
                  0000d110    00000010                   : BIOS.obj (.text:ti_sysbios_BIOS_setThreadType__E)
                  0000d120    00000010                   : BIOS.obj (.text:ti_sysbios_BIOS_start__E)
                  0000d130    00000010                   : m3_TaskSupport_asm.obj (.text:ti_sysbios_family_arm_m3_TaskSupport_glue)
                  0000d140    00000010                   : BIOS.obj (.text:ti_sysbios_gates_GateMutex_Instance_finalize__E)
                  0000d150    00000010     DTC1200_pem4f.oem4f (.text:ti_sysbios_heaps_HeapMem_Module_GateProxy_leave__E)
                  0000d160    00000010     sysbios.aem4f : BIOS.obj (.text:ti_sysbios_knl_Semaphore_Instance_finalize__E)
                  0000d170    00000010                   : BIOS.obj (.text:ti_sysbios_knl_Swi_disable__E)
                  0000d180    00000010     DTC1200_pem4f.oem4f (.text:ti_sysbios_knl_Task_SupportProxy_checkStack__E)
                  0000d190    00000010     DTC1200_pem4f.oem4f (.text:ti_sysbios_knl_Task_SupportProxy_swap__E)
                  0000d1a0    00000010     sysbios.aem4f : BIOS.obj (.text:ti_sysbios_knl_Task_disable__E)
                  0000d1b0    00000010     driverlib.lib : udma.obj (.text:uDMAEnable)
                  0000d1c0    00000010     ti.targets.arm.rtsarm.aem4f : Gate.oem4f (.text:xdc_runtime_Gate_leaveSystem__E)
                  0000d1d0    00000010     DTC1200_pem4f.oem4f (.text:xdc_runtime_Main_Module_GateProxy_leave__E)
                  0000d1e0    00000010     ti.targets.arm.rtsarm.aem4f : Memory.oem4f (.text:xdc_runtime_Memory_free__E)
                  0000d1f0    00000010                                 : SysMin.oem4f (.text:xdc_runtime_SysMin_ready__E)
                  0000d200    00000010     DTC1200_pem4f.oem4f (.text:xdc_runtime_System_Module_GateProxy_leave__E)
                  0000d210    00000010     DTC1200_pem4f.oem4f (.text:xdc_runtime_System_SupportProxy_putch__E)
                  0000d220    00000010     ti.targets.arm.rtsarm.aem4f : System.oem4f (.text:xdc_runtime_System_vsnprintf__E)
                  0000d230    0000000e     driverlib.lib : adc.obj (.text:ADCSequenceEnable)
                  0000d23e    0000000e                   : gpio.obj (.text:GPIOIntStatus)
                  0000d24c    0000000e                   : qei.obj (.text:QEIConfigure)
                  0000d25a    0000000e                   : qei.obj (.text:QEIDirectionGet)
                  0000d268    0000000e                   : timer.obj (.text:TimerEnable)
                  0000d276    0000000e                   : uart.obj (.text:UARTCharGetNonBlocking)
                  0000d284    0000000e                   : uart.obj (.text:UARTCharPutNonBlocking)
                  0000d292    0000000e                   : watchdog.obj (.text:WatchdogStallDisable)
                  0000d2a0    0000000e                   : watchdog.obj (.text:WatchdogStallEnable)
                  0000d2ae    0000000e     rtsv7M4_T_le_v4SPD16_eabi.lib : copy_decompress_none.obj (.text:decompress:none)
                  0000d2bc    00000004     --HOLE-- [fill = 0]
                  0000d2c0    0000000e     sysbios.aem4f : BIOS.obj (.text:ti_sysbios_knl_Idle_loop__E)
                  0000d2ce    00000002     --HOLE-- [fill = 0]
                  0000d2d0    0000000e                   : BIOS.obj (.text:ti_sysbios_knl_Queue_empty__E)
                  0000d2de    0000000c     driverlib.lib : cpu.obj (.text:CPUcpsid)
                  0000d2ea    0000000c                   : cpu.obj (.text:CPUcpsie)
                  0000d2f6    0000000c     drivers_tivaware.aem4f : RingBuf.oem4f (.text:RingBuf_peek)
                  0000d302    0000000c     driverlib.lib : uart.obj (.text:UARTFlowControlSet)
                  0000d30e    0000000c     drivers_tivaware.aem4f : UARTTiva.oem4f (.text:UARTTiva_init)
                  0000d31a    00000002     --HOLE-- [fill = 0]
                  0000d31c    0000000c     driverlib.lib : watchdog.obj (.text:WatchdogUnlock)
                  0000d328    0000000c     rtsv7M4_T_le_v4SPD16_eabi.lib : copy_zero_init.obj (.text:decompress:ZI)
                  0000d334    0000000c     DTC1200_pem4f.oem4f (.text:ti_sysbios_BIOS_RtsGateProxy_enter__E)
                  0000d340    0000000c     sysbios.aem4f : BIOS.obj (.text:ti_sysbios_family_arm_lm4_Timer_getMaxTicks__E)
                  0000d34c    0000000c     DTC1200_pem4f.oem4f (.text:ti_sysbios_family_arm_m3_Hwi_destruct)
                  0000d358    0000000c     sysbios.aem4f : BIOS.obj (.text:ti_sysbios_family_arm_m3_Hwi_disableFxn__E)
                  0000d364    00000004     --HOLE-- [fill = 0]
                  0000d368    0000000c                   : BIOS.obj (.text:ti_sysbios_family_arm_m3_TaskSupport_checkStack__E)
                  0000d374    00000004     --HOLE-- [fill = 0]
                  0000d378    0000000c                   : BIOS.obj (.text:ti_sysbios_family_arm_m3_TaskSupport_getStackAlignment__E)
                  0000d384    00000004     --HOLE-- [fill = 0]
                  0000d388    0000000c                   : BIOS.obj (.text:ti_sysbios_gates_GateHwi_enter__E)
                  0000d394    0000000c     DTC1200_pem4f.oem4f (.text:ti_sysbios_heaps_HeapMem_Module_GateProxy_enter__E)
                  0000d3a0    0000000c     DTC1200_pem4f.oem4f (.text:ti_sysbios_heaps_HeapMem_Module_GateProxy_query__E)
                  0000d3ac    0000000c     DTC1200_pem4f.oem4f (.text:ti_sysbios_knl_Clock_TimerProxy_getMaxTicks__E)
                  0000d3b8    0000000c     DTC1200_pem4f.oem4f (.text:ti_sysbios_knl_Clock_destruct)
                  0000d3c4    0000000c     DTC1200_pem4f.oem4f (.text:ti_sysbios_knl_Queue_destruct)
                  0000d3d0    0000000c     DTC1200_pem4f.oem4f (.text:ti_sysbios_knl_Semaphore_destruct)
                  0000d3dc    0000000c     driverlib.lib : udma.obj (.text:uDMAControlBaseSet)
                  0000d3e8    0000000c                   : udma.obj (.text:uDMAErrorStatusClear)
                  0000d3f4    0000000c                   : udma.obj (.text:uDMAErrorStatusGet)
                  0000d400    0000000c                   : udma.obj (.text:uDMAIntStatus)
                  0000d40c    0000000c     DTC1200_pem4f.oem4f (.text:xdc_iargToPtr)
                  0000d418    0000000c     ti.targets.arm.rtsarm.aem4f : Error.oem4f (.text:xdc_runtime_Error_init__E)
                  0000d424    0000000c                                 : Gate.oem4f (.text:xdc_runtime_Gate_enterSystem__E)
                  0000d430    0000000c     DTC1200_pem4f.oem4f (.text:xdc_runtime_Main_Module_GateProxy_enter__E)
                  0000d43c    0000000c     ti.targets.arm.rtsarm.aem4f : Memory.oem4f (.text:xdc_runtime_Memory_calloc__E)
                  0000d448    0000000c                                 : Memory.oem4f (.text:xdc_runtime_Memory_getMaxDefaultTypeAlign__E)
                  0000d454    0000000c     DTC1200_pem4f.oem4f (.text:xdc_runtime_System_Module_GateProxy_enter__E)
                  0000d460    0000000c     DTC1200_pem4f.oem4f (.text:xdc_runtime_System_SupportProxy_abort__E)
                  0000d46c    0000000c     DTC1200_pem4f.oem4f (.text:xdc_runtime_System_SupportProxy_exit__E)
                  0000d478    0000000a     driverlib.lib : adc.obj (.text:ADCIntClear)
                  0000d482    0000000a                   : i2c.obj (.text:I2CMasterDisable)
                  0000d48c    0000000a                   : i2c.obj (.text:I2CMasterEnable)
                  0000d496    0000000a     drivers_tivaware.aem4f : I2CTiva.oem4f (.text:I2CTiva_init)
                  0000d4a0    0000000a     driverlib.lib : qei.obj (.text:QEIEnable)
                  0000d4aa    0000000a                   : qei.obj (.text:QEIIntStatus)
                  0000d4b4    0000000a                   : qei.obj (.text:QEIVelocityEnable)
                  0000d4be    0000000a     drivers_tivaware.aem4f : SPITivaDMA.oem4f (.text:SPITivaDMA_init)
                  0000d4c8    0000000a                            : SPI.oem4f (.text:SPI_transfer)
                  0000d4d2    0000000a     driverlib.lib : ssi.obj (.text:SSIDMADisable)
                  0000d4dc    0000000a                   : ssi.obj (.text:SSIDisable)
                  0000d4e6    0000000a                   : ssi.obj (.text:SSIEnable)
                  0000d4f0    0000000a                   : ssi.obj (.text:SSIIntDisable)
                  0000d4fa    0000000a                   : timer.obj (.text:TimerValueGet)
                  0000d504    0000000a                   : uart.obj (.text:UARTCharGet)
                  0000d50e    0000000a                   : uart.obj (.text:UARTCharPut)
                  0000d518    0000000a                   : uart.obj (.text:UARTIntDisable)
                  0000d522    0000000a                   : uart.obj (.text:UARTIntStatus)
                  0000d52c    0000000a     drivers_tivaware.aem4f : UART.oem4f (.text:UART_read)
                  0000d536    0000000a                            : UART.oem4f (.text:UART_write)
                  0000d540    0000000a     driverlib.lib : watchdog.obj (.text:WatchdogEnable)
                  0000d54a    0000000a                   : watchdog.obj (.text:WatchdogResetDisable)
                  0000d554    0000000a                   : watchdog.obj (.text:WatchdogResetEnable)
                  0000d55e    00000008                   : i2c.obj (.text:I2CMasterIntClear)
                  0000d566    00000008                   : i2c.obj (.text:I2CMasterSlaveAddrSet)
                  0000d56e    00000008     drivers_tivaware.aem4f : I2CTiva.oem4f (.text:I2CTiva_blockingCallback)
                  0000d576    00000008     driverlib.lib : ssi.obj (.text:SSIDMAEnable)
                  0000d57e    00000008                   : ssi.obj (.text:SSIIntEnable)
                  0000d586    00000008                   : timer.obj (.text:TimerIntEnable)
                  0000d58e    00000008                   : uart.obj (.text:UARTIntEnable)
                  0000d596    00000008                   : uart.obj (.text:UARTRxErrorGet)
                  0000d59e    00000008                   : watchdog.obj (.text:WatchdogLock)
                  0000d5a6    00000008     drivers_tivaware.aem4f : WatchdogTiva.oem4f (.text:WatchdogTiva_clear)
                  0000d5ae    00000008                            : WatchdogTiva.oem4f (.text:WatchdogTiva_init)
                  0000d5b6    00000008                            : UARTTiva.oem4f (.text:readSemCallback)
                  0000d5be    00000008     DTC1200_pem4f.oem4f (.text:ti_sysbios_family_arm_lm4_Timer_Module__startupDone__S)
                  0000d5c6    00000008     sysbios.aem4f : BIOS.obj (.text:ti_sysbios_family_arm_lm4_Timer_masterDisable__I)
                  0000d5ce    00000008     DTC1200_pem4f.oem4f (.text:ti_sysbios_family_arm_m3_Hwi_Module__startupDone__S)
                  0000d5d6    00000002     --HOLE-- [fill = 0]
                  0000d5d8    00000008     sysbios.aem4f : BIOS.obj (.text:ti_sysbios_family_arm_m3_Hwi_doSwiRestore__I)
                  0000d5e0    00000008                   : BIOS.obj (.text:ti_sysbios_family_arm_m3_Hwi_startup__E)
                  0000d5e8    00000008     DTC1200_pem4f.oem4f (.text:ti_sysbios_hal_Hwi_HwiProxy_Module__startupDone__S)
                  0000d5f0    00000008     DTC1200_pem4f.oem4f (.text:ti_sysbios_hal_Hwi_HwiProxy_startup__E)
                  0000d5f8    00000008     DTC1200_pem4f.oem4f (.text:ti_sysbios_hal_Hwi_HwiProxy_switchFromBootStack__E)
                  0000d600    00000008     DTC1200_pem4f.oem4f (.text:ti_sysbios_knl_Clock_TimerProxy_Module__startupDone__S)
                  0000d608    00000008     DTC1200_pem4f.oem4f (.text:ti_sysbios_knl_Task_SupportProxy_Module__startupDone__S)
                  0000d610    00000008     DTC1200_pem4f.oem4f (.text:ti_sysbios_knl_Task_SupportProxy_getStackAlignment__E)
                  0000d618    00000008     drivers_tivaware.aem4f : UARTTiva.oem4f (.text:writeSemCallback)
                  0000d620    00000008     DTC1200_pem4f.oem4f (.text:xdc_runtime_System_SupportProxy_ready__E)
                  0000d628    00000006     driverlib.lib : i2c.obj (.text:I2CMasterIntEnable)
                  0000d62e    00000006     drivers_tivaware.aem4f : I2CTiva.oem4f (.text:I2CTiva_control)
                  0000d634    00000006                            : SPITivaDMA.oem4f (.text:SPITivaDMA_control)
                  0000d63a    00000006                            : SPITivaDMA.oem4f (.text:SPITivaDMA_transferCallback)
                  0000d640    00000006     driverlib.lib : sysctl.obj (.text:SysCtlDelay)
                  0000d646    00000006                   : uart.obj (.text:UARTFIFOLevelSet)
                  0000d64c    00000006                   : uart.obj (.text:UARTRxErrorClear)
                  0000d652    00000006                   : watchdog.obj (.text:WatchdogIntClear)
                  0000d658    00000006     drivers_tivaware.aem4f : WatchdogTiva.oem4f (.text:WatchdogTiva_control)
                  0000d65e    00000006     Boot.aem4f : Boot_sysctl.oem4f (.text:ti_catalog_arm_cortexm4_tiva_ce_Boot_sysCtlDelayI__I)
                  0000d664    00000004     --HOLE-- [fill = 0]
                  0000d668    00000006     sysbios.aem4f : BIOS.obj (.text:ti_sysbios_family_arm_m3_Hwi_doTaskRestore__I)
                  0000d66e    00000002     --HOLE-- [fill = 0]
                  0000d670    00000006                   : BIOS.obj (.text:ti_sysbios_family_arm_m3_Hwi_restoreFxn__E)
                  0000d676    00000002     --HOLE-- [fill = 0]
                  0000d678    00000006                   : BIOS.obj (.text:ti_sysbios_gates_GateHwi_leave__E)
                  0000d67e    00000002     --HOLE-- [fill = 0]
                  0000d680    00000006                   : BIOS.obj (.text:ti_sysbios_heaps_HeapMem_isBlocking__E)
                  0000d686    00000002     --HOLE-- [fill = 0]
                  0000d688    00000006                   : BIOS.obj (.text:ti_sysbios_knl_Clock_stop__E)
                  0000d68e    00000002     --HOLE-- [fill = 0]
                  0000d690    00000006                   : BIOS.obj (.text:ti_sysbios_knl_Queue_Instance_init__E)
                  0000d696    00000002     --HOLE-- [fill = 0]
                  0000d698    00000006                   : BIOS.obj (.text:ti_sysbios_knl_Swi_startup__E)
                  0000d69e    00000006     ti.targets.arm.rtsarm.aem4f : System.oem4f (.text:xdc_runtime_System_Module_startup__E)
                  0000d6a4    00000004     --HOLE-- [fill = 0]
                  0000d6a8    00000004     sysbios.aem4f : BIOS.obj (.text:ti_sysbios_gates_GateHwi_query__E)
                  0000d6ac    00000004     --HOLE-- [fill = 0]
                  0000d6b0    00000004                   : BIOS.obj (.text:ti_sysbios_gates_GateMutex_query__E)
                  0000d6b4    00000004     --HOLE-- [fill = 0]
                  0000d6b8    00000004                   : BIOS.obj (.text:ti_sysbios_knl_Task_startup__E)
                  0000d6bc    00000004     --HOLE-- [fill = 0]
                  0000d6c0    00000002                   : BIOS.obj (.text:ti_sysbios_gates_GateHwi_Instance_init__E)
                  0000d6c2    00000006     --HOLE-- [fill = 0]
                  0000d6c8    00000002                   : BIOS.obj (.text:ti_sysbios_knl_Clock_logTick__E)

.const     0    0000d6cc    000029e0     
                  0000d6cc    000018f6     DTC1200_pem4f.oem4f (.const:xdc_runtime_Text_charTab__A)
                  0000efc2    00000002     DTC1200_pem4f.oem4f (.const:ti_catalog_arm_cortexm4_tiva_ce_Boot_Module__id__C)
                  0000efc4    000004b0     TerminalTask.obj (.const:.string)
                  0000f474    00000101     rtsv7M4_T_le_v4SPD16_eabi.lib : ctype.obj (.const:.string:_ctypes_)
                  0000f575    00000001     DTC1200_pem4f.oem4f (.const:xdc_runtime_Error_policy__C)
                  0000f576    000000c4     DTC1200_pem4f.oem4f (.const:xdc_runtime_Text_nodeTab__A)
                  0000f63a    00000002     DTC1200_pem4f.oem4f (.const:ti_sysbios_family_arm_m3_Hwi_Module__id__C)
                  0000f63c    00000090     driverlib.lib : gpio.obj (.const:g_pui32GPIOBaseAddrs)
                  0000f6cc    00000078     DTC1200_TivaTM4C123AE6PMI.obj (.const:spiTivaDMAHWAttrs)
                  0000f744    0000006c     driverlib.lib : sysctl.obj (.const:g_pui32Xtals)
                  0000f7b0    00000064     drivers_tivaware.aem4f : SPITivaDMA.oem4f (.const)
                  0000f814    00000054                            : GPIOTiva.oem4f (.const:.string)
                  0000f868    0000004c                            : UARTTiva.oem4f (.const)
                  0000f8b4    00000048     DTC1200_pem4f.oem4f (.const:.string)
                  0000f8fc    00000048     drivers_tivaware.aem4f : GPIOTiva.oem4f (.const:gpioBaseAddresses)
                  0000f944    00000048     DTC1200_TivaTM4C123AE6PMI.obj (.const:uartTivaHWAttrs)
                  0000f98c    0000003c     DTC1200_pem4f.oem4f (.const:ti_sysbios_knl_Task_Object__PARAMS__C)
                  0000f9c8    00000037     Diag.obj (.const:s_lamp)
                  0000f9ff    00000001     --HOLE-- [fill = 0]
                  0000fa00    00000034     DTC1200_pem4f.oem4f (.const:ti_sysbios_knl_Mailbox_Object__PARAMS__C)
                  0000fa34    00000030     DTC1200_TivaTM4C123AE6PMI.obj (.const:SPI_config)
                  0000fa64    00000030     DTC1200_TivaTM4C123AE6PMI.obj (.const:UART_config)
                  0000fa94    00000030     DTC1200_pem4f.oem4f (.const:ti_sysbios_family_arm_m3_Hwi_Object__PARAMS__C)
                  0000fac4    0000002c     Diag.obj (.const:s_trans)
                  0000faf0    00000028     drivers_tivaware.aem4f : UARTTiva.oem4f (.const:UARTTiva_fxnTable)
                  0000fb18    00000028     DTC1200_pem4f.oem4f (.const:ti_sysbios_heaps_HeapMem_Module__FXNS__C)
                  0000fb40    00000024     DTC1200_TivaTM4C123AE6PMI.obj (.const:I2C_config)
                  0000fb64    00000024     drivers_tivaware.aem4f : UART.oem4f (.const:UART_defaultParams)
                  0000fb88    00000024     DTC1200_pem4f.oem4f (.const:ti_sysbios_gates_GateHwi_Module__FXNS__C)
                  0000fbac    00000024     DTC1200_pem4f.oem4f (.const:ti_sysbios_gates_GateMutex_Module__FXNS__C)
                  0000fbd0    00000024     DTC1200_pem4f.oem4f (.const:ti_sysbios_heaps_HeapMem_Object__PARAMS__C)
                  0000fbf4    00000024     DTC1200_pem4f.oem4f (.const:ti_sysbios_knl_Clock_Object__PARAMS__C)
                  0000fc18    00000024     DTC1200_pem4f.oem4f (.const:ti_sysbios_knl_Semaphore_Object__PARAMS__C)
                  0000fc3c    00000024     DTC1200_pem4f.oem4f (.const:xdc_runtime_Startup_sfxnTab__A)
                  0000fc60    00000020     drivers_tivaware.aem4f : SPI.oem4f (.const)
                  0000fc80    00000020     DTC1200_pem4f.oem4f (.const:ti_sysbios_family_arm_m3_Hwi_Object__DESC__C)
                  0000fca0    00000020     DTC1200_pem4f.oem4f (.const:ti_sysbios_gates_GateHwi_Object__DESC__C)
                  0000fcc0    00000020     DTC1200_pem4f.oem4f (.const:ti_sysbios_gates_GateMutex_Object__DESC__C)
                  0000fce0    00000020     DTC1200_pem4f.oem4f (.const:ti_sysbios_heaps_HeapMem_Object__DESC__C)
                  0000fd00    00000020     DTC1200_pem4f.oem4f (.const:ti_sysbios_knl_Clock_Object__DESC__C)
                  0000fd20    00000020     DTC1200_pem4f.oem4f (.const:ti_sysbios_knl_Mailbox_Object__DESC__C)
                  0000fd40    00000020     DTC1200_pem4f.oem4f (.const:ti_sysbios_knl_Queue_Object__DESC__C)
                  0000fd60    00000020     DTC1200_pem4f.oem4f (.const:ti_sysbios_knl_Semaphore_Object__DESC__C)
                  0000fd80    00000020     DTC1200_pem4f.oem4f (.const:ti_sysbios_knl_Task_Object__DESC__C)
                  0000fda0    0000001c     drivers_tivaware.aem4f : I2CTiva.oem4f (.const)
                  0000fdbc    0000001a     Diag.obj (.const:.string:s_startstr)
                  0000fdd6    00000002     DTC1200_pem4f.oem4f (.const:ti_sysbios_hal_Hwi_Module__id__C)
                  0000fdd8    00000018     DTC1200_TivaTM4C123AE6PMI.obj (.const:Watchdog_config)
                  0000fdf0    00000018     drivers_tivaware.aem4f : WatchdogTiva.oem4f (.const)
                  0000fe08    00000018     DTC1200_TivaTM4C123AE6PMI.obj (.const:i2cTivaHWAttrs)
                  0000fe20    00000018     DTC1200_pem4f.oem4f (.const:ti_sysbios_gates_GateHwi_Object__PARAMS__C)
                  0000fe38    00000018     DTC1200_pem4f.oem4f (.const:ti_sysbios_gates_GateMutex_Object__PARAMS__C)
                  0000fe50    00000018     DTC1200_pem4f.oem4f (.const:ti_sysbios_knl_Queue_Object__PARAMS__C)
                  0000fe68    00000017     Diag.obj (.const:.string:s_waitstr)
                  0000fe7f    00000001     --HOLE-- [fill = 0]
                  0000fe80    00000014     DTC1200_TivaTM4C123AE6PMI.obj (.const:GPIOTiva_config)
                  0000fe94    00000014     DTC1200_pem4f.oem4f (.const:xdc_runtime_Startup_firstFxns__A)
                  0000fea8    00000012     DTC1200_pem4f.oem4f (.const:xdc_runtime_Startup_sfxnRts__A)
                  0000feba    00000002     DTC1200_pem4f.oem4f (.const:ti_sysbios_heaps_HeapMem_Module__id__C)
                  0000febc    00000010     drivers_tivaware.aem4f : I2C.oem4f (.const)
                  0000fecc    00000010     DTC1200_TivaTM4C123AE6PMI.obj (.const:watchdogTivaHWAttrs)
                  0000fedc    00000008     TerminalTask.obj (.const:.string:s_inv_on)
                  0000fee4    00000008     TerminalTask.obj (.const:.string:s_ul_on)
                  0000feec    00000008     DTC1200_pem4f.oem4f (.const:ti_sysbios_family_arm_m3_Hwi_excHookFuncs__A)
                  0000fef4    00000008     DTC1200_pem4f.oem4f (.const:ti_sysbios_knl_Idle_funcList__C)
                  0000fefc    00000008     DTC1200_pem4f.oem4f (.const:xdc_runtime_Startup_firstFxns__C)
                  0000ff04    00000008     DTC1200_pem4f.oem4f (.const:xdc_runtime_Startup_lastFxns__C)
                  0000ff0c    00000005     TerminalTask.obj (.const:.string:s_inv_off)
                  0000ff11    00000005     Diag.obj (.const:.string:s_lamp$1)
                  0000ff16    00000005     TerminalTask.obj (.const:.string:s_ul_off)
                  0000ff1b    00000001     --HOLE-- [fill = 0]
                  0000ff1c    00000004     DTC1200_pem4f.oem4f (.const:ti_catalog_arm_cortexm4_tiva_ce_Boot_A_mustUseEnhancedClockMode__C)
                  0000ff20    00000004     DTC1200_pem4f.oem4f (.const:ti_catalog_arm_cortexm4_tiva_ce_Boot_Module__diagsEnabled__C)
                  0000ff24    00000004     DTC1200_pem4f.oem4f (.const:ti_catalog_arm_cortexm4_tiva_ce_Boot_Module__diagsIncluded__C)
                  0000ff28    00000004     DTC1200_pem4f.oem4f (.const:ti_catalog_arm_cortexm4_tiva_ce_Boot_Module__diagsMask__C)
                  0000ff2c    00000004     DTC1200_pem4f.oem4f (.const:ti_sysbios_BIOS_installedErrorHook__C)
                  0000ff30    00000004     DTC1200_pem4f.oem4f (.const:ti_sysbios_family_arm_lm4_Timer_enableFunc__C)
                  0000ff34    00000004     DTC1200_pem4f.oem4f (.const:ti_sysbios_family_arm_lm4_Timer_numTimerDevices__C)
                  0000ff38    00000004     DTC1200_pem4f.oem4f (.const:ti_sysbios_family_arm_lm4_Timer_startupNeeded__C)
                  0000ff3c    00000004     DTC1200_pem4f.oem4f (.const:ti_sysbios_family_arm_m3_Hwi_E_NMI__C)
                  0000ff40    00000004     DTC1200_pem4f.oem4f (.const:ti_sysbios_family_arm_m3_Hwi_E_alreadyDefined__C)
                  0000ff44    00000004     DTC1200_pem4f.oem4f (.const:ti_sysbios_family_arm_m3_Hwi_E_busFault__C)
                  0000ff48    00000004     DTC1200_pem4f.oem4f (.const:ti_sysbios_family_arm_m3_Hwi_E_debugMon__C)
                  0000ff4c    00000004     DTC1200_pem4f.oem4f (.const:ti_sysbios_family_arm_m3_Hwi_E_hardFault__C)
                  0000ff50    00000004     DTC1200_pem4f.oem4f (.const:ti_sysbios_family_arm_m3_Hwi_E_memFault__C)
                  0000ff54    00000004     DTC1200_pem4f.oem4f (.const:ti_sysbios_family_arm_m3_Hwi_E_noIsr__C)
                  0000ff58    00000004     DTC1200_pem4f.oem4f (.const:ti_sysbios_family_arm_m3_Hwi_E_reserved__C)
                  0000ff5c    00000004     DTC1200_pem4f.oem4f (.const:ti_sysbios_family_arm_m3_Hwi_E_svCall__C)
                  0000ff60    00000004     DTC1200_pem4f.oem4f (.const:ti_sysbios_family_arm_m3_Hwi_E_usageFault__C)
                  0000ff64    00000004     DTC1200_pem4f.oem4f (.const:ti_sysbios_family_arm_m3_Hwi_NUM_INTERRUPTS__C)
                  0000ff68    00000004     DTC1200_pem4f.oem4f (.const:ti_sysbios_family_arm_m3_Hwi_Object__count__C)
                  0000ff6c    00000004     DTC1200_pem4f.oem4f (.const:ti_sysbios_family_arm_m3_Hwi_Object__table__C)
                  0000ff70    00000004     DTC1200_pem4f.oem4f (.const:ti_sysbios_family_arm_m3_Hwi_ccr__C)
                  0000ff74    00000004     DTC1200_pem4f.oem4f (.const:ti_sysbios_family_arm_m3_Hwi_excHandlerFunc__C)
                  0000ff78    00000004     DTC1200_pem4f.oem4f (.const:ti_sysbios_family_arm_m3_Hwi_excHookFuncs__C)
                  0000ff7c    00000004     DTC1200_pem4f.oem4f (.const:ti_sysbios_family_arm_m3_Hwi_nullIsrFunc__C)
                  0000ff80    00000004     DTC1200_pem4f.oem4f (.const:ti_sysbios_family_arm_m3_Hwi_priGroup__C)
                  0000ff84    00000004     DTC1200_pem4f.oem4f (.const:ti_sysbios_family_arm_m3_TaskSupport_stackAlignment__C)
                  0000ff88    00000004     DTC1200_pem4f.oem4f (.const:ti_sysbios_gates_GateMutex_Instance_State_sem__O)
                  0000ff8c    00000004     DTC1200_pem4f.oem4f (.const:ti_sysbios_hal_Hwi_E_stackOverflow__C)
                  0000ff90    00000004     DTC1200_pem4f.oem4f (.const:ti_sysbios_heaps_HeapMem_E_memory__C)
                  0000ff94    00000004     DTC1200_pem4f.oem4f (.const:ti_sysbios_heaps_HeapMem_Module__gateObj__C)
                  0000ff98    00000004     DTC1200_pem4f.oem4f (.const:ti_sysbios_heaps_HeapMem_Object__count__C)
                  0000ff9c    00000004     DTC1200_pem4f.oem4f (.const:ti_sysbios_heaps_HeapMem_Object__table__C)
                  0000ffa0    00000004     DTC1200_pem4f.oem4f (.const:ti_sysbios_heaps_HeapMem_reqAlign__C)
                  0000ffa4    00000004     DTC1200_pem4f.oem4f (.const:ti_sysbios_knl_Clock_Module_State_clockQ__O)
                  0000ffa8    00000004     DTC1200_pem4f.oem4f (.const:ti_sysbios_knl_Idle_funcList__A)
                  0000ffac    00000004     DTC1200_pem4f.oem4f (.const:ti_sysbios_knl_Mailbox_Instance_State_dataQue__O)
                  0000ffb0    00000004     DTC1200_pem4f.oem4f (.const:ti_sysbios_knl_Mailbox_Instance_State_dataSem__O)
                  0000ffb4    00000004     DTC1200_pem4f.oem4f (.const:ti_sysbios_knl_Mailbox_Instance_State_freeQue__O)
                  0000ffb8    00000004     DTC1200_pem4f.oem4f (.const:ti_sysbios_knl_Mailbox_Instance_State_freeSem__O)
                  0000ffbc    00000004     DTC1200_pem4f.oem4f (.const:ti_sysbios_knl_Mailbox_Object__count__C)
                  0000ffc0    00000004     DTC1200_pem4f.oem4f (.const:ti_sysbios_knl_Mailbox_Object__table__C)
                  0000ffc4    00000004     DTC1200_pem4f.oem4f (.const:ti_sysbios_knl_Mailbox_maxTypeAlign__C)
                  0000ffc8    00000004     DTC1200_pem4f.oem4f (.const:ti_sysbios_knl_Queue_Object__count__C)
                  0000ffcc    00000004     DTC1200_pem4f.oem4f (.const:ti_sysbios_knl_Queue_Object__table__C)
                  0000ffd0    00000004     DTC1200_pem4f.oem4f (.const:ti_sysbios_knl_Semaphore_Instance_State_pendQ__O)
                  0000ffd4    00000004     DTC1200_pem4f.oem4f (.const:ti_sysbios_knl_Swi_Object__count__C)
                  0000ffd8    00000004     DTC1200_pem4f.oem4f (.const:ti_sysbios_knl_Swi_Object__table__C)
                  0000ffdc    00000004     DTC1200_pem4f.oem4f (.const:ti_sysbios_knl_Task_E_spOutOfBounds__C)
                  0000ffe0    00000004     DTC1200_pem4f.oem4f (.const:ti_sysbios_knl_Task_E_stackOverflow__C)
                  0000ffe4    00000004     DTC1200_pem4f.oem4f (.const:ti_sysbios_knl_Task_Module_State_inactiveQ__O)
                  0000ffe8    00000004     DTC1200_pem4f.oem4f (.const:ti_sysbios_knl_Task_Object__count__C)
                  0000ffec    00000004     DTC1200_pem4f.oem4f (.const:ti_sysbios_knl_Task_Object__table__C)
                  0000fff0    00000004     DTC1200_pem4f.oem4f (.const:ti_sysbios_knl_Task_allBlockedFunc__C)
                  0000fff4    00000004     DTC1200_pem4f.oem4f (.const:ti_sysbios_knl_Task_defaultStackHeap__C)
                  0000fff8    00000004     DTC1200_pem4f.oem4f (.const:ti_sysbios_knl_Task_defaultStackSize__C)
                  0000fffc    00000004     DTC1200_pem4f.oem4f (.const:ti_sysbios_knl_Task_numConstructedTasks__C)
                  00010000    00000004     DTC1200_pem4f.oem4f (.const:xdc_runtime_Assert_E_assertFailed__C)
                  00010004    00000004     DTC1200_pem4f.oem4f (.const:xdc_runtime_Core_A_initializedParams__C)
                  00010008    00000004     DTC1200_pem4f.oem4f (.const:xdc_runtime_Core_Module__diagsEnabled__C)
                  0001000c    00000004     DTC1200_pem4f.oem4f (.const:xdc_runtime_Core_Module__diagsIncluded__C)
                  00010010    00000004     DTC1200_pem4f.oem4f (.const:xdc_runtime_Core_Module__diagsMask__C)
                  00010014    00000004     DTC1200_pem4f.oem4f (.const:xdc_runtime_Error_E_memory__C)
                  00010018    00000004     DTC1200_pem4f.oem4f (.const:xdc_runtime_Error_Module__diagsEnabled__C)
                  0001001c    00000004     DTC1200_pem4f.oem4f (.const:xdc_runtime_Error_Module__diagsIncluded__C)
                  00010020    00000004     DTC1200_pem4f.oem4f (.const:xdc_runtime_Error_Module__diagsMask__C)
                  00010024    00000004     DTC1200_pem4f.oem4f (.const:xdc_runtime_Error_Module__loggerFxn8__C)
                  00010028    00000004     DTC1200_pem4f.oem4f (.const:xdc_runtime_Error_Module__loggerObj__C)
                  0001002c    00000004     DTC1200_pem4f.oem4f (.const:xdc_runtime_Error_policyFxn__C)
                  00010030    00000004     DTC1200_pem4f.oem4f (.const:xdc_runtime_Error_raiseHook__C)
                  00010034    00000004     DTC1200_pem4f.oem4f (.const:xdc_runtime_IGateProvider_Interface__BASE__C)
                  00010038    00000004     DTC1200_pem4f.oem4f (.const:xdc_runtime_IHeap_Interface__BASE__C)
                  0001003c    00000004     DTC1200_pem4f.oem4f (.const:xdc_runtime_IModule_Interface__BASE__C)
                  00010040    00000004     DTC1200_pem4f.oem4f (.const:xdc_runtime_Log_L_error__C)
                  00010044    00000004     DTC1200_pem4f.oem4f (.const:xdc_runtime_Main_Module__gateObj__C)
                  00010048    00000004     DTC1200_pem4f.oem4f (.const:xdc_runtime_Memory_defaultHeapInstance__C)
                  0001004c    00000004     DTC1200_pem4f.oem4f (.const:xdc_runtime_Startup_execImpl__C)
                  00010050    00000004     DTC1200_pem4f.oem4f (.const:xdc_runtime_Startup_maxPasses__C)
                  00010054    00000004     DTC1200_pem4f.oem4f (.const:xdc_runtime_Startup_sfxnRts__C)
                  00010058    00000004     DTC1200_pem4f.oem4f (.const:xdc_runtime_Startup_sfxnTab__C)
                  0001005c    00000004     DTC1200_pem4f.oem4f (.const:xdc_runtime_Startup_startModsFxn__C)
                  00010060    00000004     DTC1200_pem4f.oem4f (.const:xdc_runtime_SysMin_bufSize__C)
                  00010064    00000004     DTC1200_pem4f.oem4f (.const:xdc_runtime_SysMin_outputFunc__C)
                  00010068    00000004     DTC1200_pem4f.oem4f (.const:xdc_runtime_System_Module__gateObj__C)
                  0001006c    00000004     DTC1200_pem4f.oem4f (.const:xdc_runtime_System_abortFxn__C)
                  00010070    00000004     DTC1200_pem4f.oem4f (.const:xdc_runtime_System_exitFxn__C)
                  00010074    00000004     DTC1200_pem4f.oem4f (.const:xdc_runtime_System_extendFxn__C)
                  00010078    00000004     DTC1200_pem4f.oem4f (.const:xdc_runtime_System_maxAtexitHandlers__C)
                  0001007c    00000004     DTC1200_pem4f.oem4f (.const:xdc_runtime_Text_charTab__C)
                  00010080    00000004     DTC1200_pem4f.oem4f (.const:xdc_runtime_Text_nameEmpty__C)
                  00010084    00000004     DTC1200_pem4f.oem4f (.const:xdc_runtime_Text_nameStatic__C)
                  00010088    00000004     DTC1200_pem4f.oem4f (.const:xdc_runtime_Text_nameUnknown__C)
                  0001008c    00000004     DTC1200_pem4f.oem4f (.const:xdc_runtime_Text_nodeTab__C)
                  00010090    00000004     DTC1200_pem4f.oem4f (.const:xdc_runtime_Text_visitRopeFxn__C)
                  00010094    00000003     Diag.obj (.const:.string:s_crlf)
                  00010097    00000001     --HOLE-- [fill = 0]
                  00010098    00000002     DTC1200_pem4f.oem4f (.const:ti_sysbios_knl_Task_Module__id__C)
                  0001009a    00000002     DTC1200_pem4f.oem4f (.const:xdc_runtime_Core_Module__id__C)
                  0001009c    00000002     DTC1200_pem4f.oem4f (.const:xdc_runtime_Error_Module__loggerDefined__C)
                  0001009e    00000002     DTC1200_pem4f.oem4f (.const:xdc_runtime_Error_maxDepth__C)
                  000100a0    00000002     DTC1200_pem4f.oem4f (.const:xdc_runtime_Memory_Module__id__C)
                  000100a2    00000002     DTC1200_pem4f.oem4f (.const:xdc_runtime_SysMin_flushAtExit__C)
                  000100a4    00000002     DTC1200_pem4f.oem4f (.const:xdc_runtime_Text_charCnt__C)
                  000100a6    00000002     DTC1200_pem4f.oem4f (.const:xdc_runtime_Text_isLoaded__C)
                  000100a8    00000002     DTC1200_pem4f.oem4f (.const:xdc_runtime_Text_registryModsLastId__C)
                  000100aa    00000002     DTC1200_pem4f.oem4f (.const:xdc_runtime_Text_unnamedModsLastId__C)

.cinit     0    000100b0    00000620     
                  000100b0    000005e8     (.cinit..data.load) [load image, compression = lzss]
                  00010698    0000000c     (__TI_handler_table)
                  000106a4    00000004     --HOLE-- [fill = 0]
                  000106a8    00000008     (.cinit..bss.load) [load image, compression = zero_init]
                  000106b0    00000008     (.cinit..vecs.load) [load image, compression = zero_init]
                  000106b8    00000018     (__TI_cinit_table)

.init_array 
*          0    00000000    00000000     UNINITIALIZED

.vecs      0    20000000    00000360     UNINITIALIZED
                  20000000    00000360     DTC1200_pem4f.oem4f (.vecs)

.bss       0    20000400    000042f0     UNINITIALIZED
                  20000400    00003000     (.common:ti_sysbios_heaps_HeapMem_Instance_State_0_buf__A)
                  20003400    00000360     (.common:ti_sysbios_family_arm_m3_Hwi_dispatchTable)
                  20003760    00000264     (.common:uartTivaObjects)
                  200039c4    00000004     TachTimer.obj (.bss)
                  200039c8    00000200     DTC1200_pem4f.oem4f (.bss:taskStackSection)
                  20003bc8    00000028     TerminalTask.obj (.bss:text$1)
                  20003bf0    0000000c     TerminalTask.obj (.bss:s_keybuf)
                  20003bfc    00000004     (.common:g_semaSPI)
                  20003c00    00000200     DTC1200_TivaTM4C123AE6PMI.obj (.bss:dmaControlTable)
                  20003e00    00000200     (.common:xdc_runtime_SysMin_Module_State_0_outbuf__A)
                  20004000    00000120     rtsv7M4_T_le_v4SPD16_eabi.lib : trgmsg.obj (.bss:_CIOBUF_)
                  20004120    00000100     tty.obj (.bss:buf$2)
                  20004220    00000100     (.common:i2cTivaObjects)
                  20004320    000000e4     (.common:spiTivaDMAObjects)
                  20004404    000000c8     (.common:g_servo)
                  200044cc    000000b8     (.common:g_sys)
                  20004584    00000090     drivers_tivaware.aem4f : GPIOTiva.oem4f (.bss:gpioCallbackInfo)
                  20004614    00000060     (.common:uartTivaRingBuffer)
                  20004674    00000020     tty.obj (.bss:buf$1)
                  20004694    00000020     (.common:watchdogTivaObjects)
                  200046b4    0000001c     DTC1200_TivaTM4C123AE6PMI.obj (.bss:dmaHwiStruct)
                  200046d0    00000008     IOExpander.obj (.bss)
                  200046d8    00000008     rtsv7M4_T_le_v4SPD16_eabi.lib : trgdrv.obj (.bss:parmbuf)
                  200046e0    0000000c     (.common:spiTivaDMAscratchBuf)
                  200046ec    00000004     (.common:gpioInterruptVectors)

.data      0    200046f0    00001306     UNINITIALIZED
                  200046f0    00000344     TerminalTask.obj (.data:main_items)
                  20004a34    00000344     TerminalTask.obj (.data:tension_items)
                  20004d78    000002c0     TerminalTask.obj (.data:play_items)
                  20005038    000001b8     TerminalTask.obj (.data:shuttle_items)
                  200051f0    00000108     TerminalTask.obj (.data:diag_items)
                  200052f8    000000dc     TerminalTask.obj (.data:general_items)
                  200053d4    00000084     TerminalTask.obj (.data:stop_items)
                  20005458    00000080     DTC1200_pem4f.oem4f (.data:ti_sysbios_knl_Swi_Module_State_0_readyQ__A)
                  200054d8    00000080     DTC1200_pem4f.oem4f (.data:ti_sysbios_knl_Task_Module_State_0_readyQ__A)
                  20005558    0000004c     DTC1200_pem4f.oem4f (.data:ti_sysbios_knl_Task_Object__table__V)
                  200055a4    00000044     DTC1200_pem4f.oem4f (.data:ti_sysbios_knl_Task_Module__state__V)
                  200055e8    00000040     DTC1200_pem4f.oem4f (.data:ti_sysbios_family_arm_lm4_Timer_Object__table__V)
                  20005628    00000038     DTC1200_pem4f.oem4f (.data:ti_sysbios_gates_GateMutex_Object__table__V)
                  20005660    00000034     DTC1200_pem4f.oem4f (.data:ti_sysbios_family_arm_m3_Hwi_Module__state__V)
                  20005694    00000030     DTC1200_TivaTM4C123AE6PMI.obj (.data:gpioPinConfigs)
                  200056c4    00000030     DTC1200_pem4f.oem4f (.data:ti_sysbios_family_arm_lm4_Timer_Module_State_0_device__A)
                  200056f4    00000030     DTC1200_pem4f.oem4f (.data:ti_sysbios_knl_Swi_Object__table__V)
                  20005724    0000002c     TerminalTask.obj (.data)
                  20005750    0000002c     DTC1200_pem4f.oem4f (.data:ti_sysbios_knl_Clock_Module__state__V)
                  2000577c    00000028     IOExpander.obj (.data:IOExpanderObjects)
                  200057a4    00000024     DTC1200_pem4f.oem4f (.data:ti_sysbios_BIOS_Module__state__V)
                  200057c8    00000022     Globals.obj (.data)
                  200057ea    00000002     IOExpander.obj (.data)
                  200057ec    0000001c     TerminalTask.obj (.data:menu_tab)
                  20005808    0000001c     DTC1200_pem4f.oem4f (.data:ti_sysbios_knl_Swi_Module__state__V)
                  20005824    00000018     DTC1200_pem4f.oem4f (.data:ti_sysbios_family_arm_lm4_Timer_Module_State_0_handles__A)
                  2000583c    00000018     DTC1200_pem4f.oem4f (.data:ti_sysbios_family_arm_m3_Hwi_Object__table__V)
                  20005854    00000018     DTC1200_pem4f.oem4f (.data:ti_sysbios_heaps_HeapMem_Object__table__V)
                  2000586c    00000014     ServoTask.obj (.data:jmptab$1)
                  20005880    00000010     TachTimer.obj (.data)
                  20005890    00000010     TerminalTask.obj (.data:menu_diag)
                  200058a0    00000010     TerminalTask.obj (.data:menu_general)
                  200058b0    00000010     TerminalTask.obj (.data:menu_main)
                  200058c0    00000010     TerminalTask.obj (.data:menu_play)
                  200058d0    00000010     TerminalTask.obj (.data:menu_shuttle)
                  200058e0    00000010     TerminalTask.obj (.data:menu_stop)
                  200058f0    00000010     TerminalTask.obj (.data:menu_tension)
                  20005900    00000010     TerminalTask.obj (.data:s_onoff)
                  20005910    0000000c     rtsv7M4_T_le_v4SPD16_eabi.lib : exit.obj (.data:$O1$$)
                  2000591c    0000000c     DTC1200_pem4f.oem4f (.data:ti_sysbios_family_arm_lm4_Timer_Module__state__V)
                  20005928    0000000c     DTC1200_pem4f.oem4f (.data:xdc_runtime_SysMin_Module__state__V)
                  20005934    00000008     rtsv7M4_T_le_v4SPD16_eabi.lib : _lock.obj (.data:$O1$$)
                  2000593c    00000008     DTC1200_TivaTM4C123AE6PMI.obj (.data:gpioCallbackFunctions)
                  20005944    00000008     IOExpander.obj (.data:initData_SPI1)
                  2000594c    00000008     IOExpander.obj (.data:initData_SPI2)
                  20005954    00000008     DTC1200_pem4f.oem4f (.data:ti_sysbios_family_arm_m3_Hwi_Module__root__V)
                  2000595c    00000008     DTC1200_pem4f.oem4f (.data:ti_sysbios_gates_GateHwi_Module__root__V)
                  20005964    00000008     DTC1200_pem4f.oem4f (.data:ti_sysbios_gates_GateMutex_Module__root__V)
                  2000596c    00000008     DTC1200_pem4f.oem4f (.data:ti_sysbios_heaps_HeapMem_Module__root__V)
                  20005974    00000008     DTC1200_pem4f.oem4f (.data:ti_sysbios_knl_Clock_Module__root__V)
                  2000597c    00000008     DTC1200_pem4f.oem4f (.data:ti_sysbios_knl_Mailbox_Module__root__V)
                  20005984    00000008     DTC1200_pem4f.oem4f (.data:ti_sysbios_knl_Queue_Module__root__V)
                  2000598c    00000008     DTC1200_pem4f.oem4f (.data:ti_sysbios_knl_Semaphore_Module__root__V)
                  20005994    00000008     DTC1200_pem4f.oem4f (.data:ti_sysbios_knl_Task_Module__root__V)
                  2000599c    00000008     DTC1200_pem4f.oem4f (.data:xdc_runtime_Registry_Module__state__V)
                  200059a4    00000008     DTC1200_pem4f.oem4f (.data:xdc_runtime_Startup_Module__state__V)
                  200059ac    00000008     DTC1200_pem4f.oem4f (.data:xdc_runtime_System_Module_State_0_atexitHandlers__A)
                  200059b4    00000008     DTC1200_pem4f.oem4f (.data:xdc_runtime_System_Module__state__V)
                  200059bc    00000005     drivers_tivaware.aem4f : GPIOTiva.oem4f (.data)
                  200059c1    00000001     DTC1200_TivaTM4C123AE6PMI.obj (.data)
                  200059c2    00000002     DTC1200_pem4f.oem4f (.data:ti_sysbios_family_arm_m3_Hwi_Module_State_0_excActive__A)
                  200059c4    00000004     MotorDAC.obj (.data)
                  200059c8    00000004     drivers_tivaware.aem4f : I2C.oem4f (.data)
                  200059cc    00000004                            : SPI.oem4f (.data)
                  200059d0    00000004                            : UART.oem4f (.data)
                  200059d4    00000004                            : Watchdog.oem4f (.data)
                  200059d8    00000004     rtsv7M4_T_le_v4SPD16_eabi.lib : errno.obj (.data)
                  200059dc    00000004                                   : stkdepth_vars.obj (.data)
                  200059e0    00000004     DTC1200_pem4f.oem4f (.data:ti_sysbios_family_arm_m3_Hwi_Module_State_0_excContext__A)
                  200059e4    00000004     DTC1200_pem4f.oem4f (.data:ti_sysbios_family_arm_m3_Hwi_Module_State_0_excStack__A)
                  200059e8    00000004     DTC1200_pem4f.oem4f (.data:ti_sysbios_gates_GateHwi_Object__table__V)
                  200059ec    00000004     DTC1200_pem4f.oem4f (.data:ti_sysbios_knl_Task_Module_State_0_idleTask__A)
                  200059f0    00000004     DTC1200_pem4f.oem4f (.data:xdc_runtime_Memory_Module__state__V)
                  200059f4    00000002     DTC1200_pem4f.oem4f (.data:xdc_runtime_Error_Module__state__V)

.stack     0    200059f8    00000300     UNINITIALIZED
                  200059f8    00000300     --HOLE--

.bootVecs 
*          0    00000000    00000008     DSECT
                  00000000    00000008     boot.aem4f : boot.oem4f (.bootVecs)

xdc.meta   0    00000000    000000ef     COPY SECTION
                  00000000    000000ef     DTC1200_pem4f.oem4f (xdc.meta)

MODULE SUMMARY

       Module                          code    ro data   rw data
       ------                          ----    -------   -------
    .\
       TerminalTask.obj                5952    1226      3684   
       DTC1200_TivaTM4C123AE6PMI.obj   1468    408       1833   
       TransportTask.obj               2264    0         0      
       ServoTask.obj                   1988    0         20     
       DTC1200.obj                     1884    0         4      
       Diag.obj                        1568    156       0      
       IOExpander.obj                  1088    0         66     
       PID.obj                         776     0         0      
       TachTimer.obj                   564     0         20     
       tty.obj                         284     0         288    
       Globals.obj                     0       0         418    
       MotorDAC.obj                    408     0         4      
    +--+-------------------------------+-------+---------+---------+
       Total:                          18244   1790      6337   
                                                                
    C:\Users\bob\workspace_v6_2\DTC1200_TivaTM4C123AE6PM\Debug\configPkg\package\cfg\
       DTC1200_pem4f.oem4f             3550    7969      16040  
    +--+-------------------------------+-------+---------+---------+
       Total:                          3550    7969      16040  
                                                                
    C:/ti/tirex-content/tirtos_tivac_2_16_00_08/products/TivaWare_C_Series-2.1.1.71b/driverlib/ccs/Debug/driverlib.lib
       gpio.obj                        698     144       0      
       sysctl.obj                      406     108       0      
       eeprom.obj                      460     0         0      
       udma.obj                        348     0         0      
       adc.obj                         308     0         0      
       uart.obj                        226     0         0      
       timer.obj                       208     0         0      
       i2c.obj                         154     0         0      
       ssi.obj                         138     0         0      
       watchdog.obj                    88      0         0      
       qei.obj                         82      0         0      
       interrupt.obj                   32      0         0      
       cpu.obj                         24      0         0      
    +--+-------------------------------+-------+---------+---------+
       Total:                          3172    252       0      
                                                                
    C:/ti/tirex-content/tirtos_tivac_2_16_00_08/products/tidrivers_tivac_2_16_00_08/packages/ti/drivers/lib/drivers_tivaware.aem4f
       UARTTiva.oem4f                  2262    116       0      
       GPIOTiva.oem4f                  764     156       153    
       SPITivaDMA.oem4f                888     100       0      
       I2CTiva.oem4f                   798     28        0      
       WatchdogTiva.oem4f              206     24        0      
       UART.oem4f                      148     36        4      
       SPI.oem4f                       134     32        4      
       RingBuf.oem4f                   164     0         0      
       I2C.oem4f                       120     16        4      
       Watchdog.oem4f                  56      0         4      
    +--+-------------------------------+-------+---------+---------+
       Total:                          5540    508       169    
                                                                
    C:\Users\bob\workspace_v6_2\DTC1200_TivaTM4C123AE6PM\src\sysbios\sysbios.aem4f
       BIOS.obj                        10014   0         0      
       m3_Hwi_asm.obj                  314     0         0      
       m3_TaskSupport_asm.obj          180     0         0      
       m3_Hwi_asm_switch.obj           118     0         0      
    +--+-------------------------------+-------+---------+---------+
       Total:                          10626   0         0      
                                                                
    C:\ti\ccsv6\tools\compiler\ti-cgt-arm_16.9.1.LTS\lib\rtsv7M4_T_le_v4SPD16_eabi.lib
       _printfi.obj                    4414    0         0      
       trgdrv.obj                      804     0         8      
       ull_div_t2.obj                  500     0         0      
       fd_add_t2.obj                   438     0         0      
       trgmsg.obj                      104     0         288    
       fd_div_t2.obj                   310     0         0      
       fd_cmp_t2.obj                   268     0         0      
       ctype.obj                       0       257       0      
       fd_mul_t2.obj                   252     0         0      
       s_scalbn.obj                    252     0         0      
       memcpy_t2.obj                   156     0         0      
       memset_t2.obj                   122     0         0      
       copy_decompress_lzss.obj        104     0         0      
       s_frexp.obj                     100     0         0      
       exit.obj                        84      0         12     
       sprintf.obj                     96      0         0      
       ltoa.obj                        84      0         0      
       atoi.obj                        76      0         0      
       atol.obj                        76      0         0      
       cpy_tbl.obj                     76      0         0      
       fd_toi_t2.obj                   72      0         0      
       vsprintf.obj                    72      0         0      
       u_divt2.obj                     64      0         0      
       strncpy.obj                     54      0         0      
       i_tofd_t2.obj                   46      0         0      
       _lock.obj                       20      0         8      
       memccpy.obj                     28      0         0      
       args_main.obj                   24      0         0      
       strcmp.obj                      24      0         0      
       strchr.obj                      22      0         0      
       s_copysign.obj                  20      0         0      
       strcpy.obj                      20      0         0      
       strlen.obj                      20      0         0      
       isalpha.obj                     16      0         0      
       isdigit.obj                     16      0         0      
       tolower.obj                     16      0         0      
       toupper.obj                     16      0         0      
       copy_decompress_none.obj        14      0         0      
       copy_zero_init.obj              12      0         0      
       errno.obj                       0       0         4      
       stkdepth_vars.obj               0       0         4      
       i_div0.obj                      2       0         0      
    +--+-------------------------------+-------+---------+---------+
       Total:                          8894    257       324    
                                                                
    C:\ti\tirex-content\tirtos_tivac_2_16_00_08\products\bios_6_45_01_29\packages\ti\catalog\arm\cortexm4\tiva\ce\lib\Boot.aem4f
       Boot_sysctl.oem4f               262     0         0      
       Boot.oem4f                      152     0         0      
    +--+-------------------------------+-------+---------+---------+
       Total:                          414     0         0      
                                                                
    C:\ti\tirex-content\tirtos_tivac_2_16_00_08\products\bios_6_45_01_29\packages\ti\targets\arm\rtsarm\lib\auto_init.aem4f
       auto_init.oem4f                 160     0         0      
    +--+-------------------------------+-------+---------+---------+
       Total:                          160     0         0      
                                                                
    C:\ti\tirex-content\tirtos_tivac_2_16_00_08\products\bios_6_45_01_29\packages\ti\targets\arm\rtsarm\lib\boot.aem4f
       boot.oem4f                      88      0         0      
    +--+-------------------------------+-------+---------+---------+
       Total:                          88      0         0      
                                                                
    C:\ti\tirex-content\tirtos_tivac_2_16_00_08\products\bios_6_45_01_29\packages\ti\targets\arm\rtsarm\lib\ti.targets.arm.rtsarm.aem4f
       System.oem4f                    1255    0         0      
       Text.oem4f                      672     0         0      
       Error.oem4f                     524     0         0      
       Core-mem.oem4f                  358     0         0      
       Startup.oem4f                   328     0         0      
       SysMin.oem4f                    248     0         0      
       Core-smem.oem4f                 204     0         0      
       Memory.oem4f                    176     0         0      
       Assert.oem4f                    84      0         0      
       Core-params.oem4f               70      0         0      
       Core-label.oem4f                52      0         0      
       Registry.oem4f                  32      0         0      
       Gate.oem4f                      28      0         0      
    +--+-------------------------------+-------+---------+---------+
       Total:                          4031    0         0      
                                                                
       Stack:                          0       0         768    
       Linker Generated:               0       1564      0      
    +--+-------------------------------+-------+---------+---------+
       Grand Total:                    54719   12340     23638  


LINKER GENERATED COPY TABLES

__TI_cinit_table @ 000106b8 records: 3, size/record: 8, table size: 24
	.data: load addr=000100b0, load size=000005e8 bytes, run addr=200046f0, run size=00001306 bytes, compression=lzss
	.bss: load addr=000106a8, load size=00000008 bytes, run addr=20000400, run size=000042f0 bytes, compression=zero_init
	.vecs: load addr=000106b0, load size=00000008 bytes, run addr=20000000, run size=00000360 bytes, compression=zero_init


LINKER GENERATED HANDLER TABLE

__TI_handler_table @ 00010698 records: 3, size/record: 4, table size: 12
	index: 0, handler: __TI_decompress_lzss
	index: 1, handler: __TI_decompress_none
	index: 2, handler: __TI_zero_init


GLOBAL SYMBOLS: SORTED ALPHABETICALLY BY Name 

address   name                                                              
-------   ----                                                              
0000d479  ADCIntClear                                                       
0000c2c1  ADCIntStatus                                                      
0000cc7b  ADCProcessorTrigger                                               
0000b869  ADCSequenceConfigure                                              
0000ca01  ADCSequenceDataGet                                                
0000d231  ADCSequenceEnable                                                 
00009955  ADCSequenceStepConfigure                                          
0000a8f5  C$$EXIT                                                           
00009fb7  C$$IO$$                                                           
0000d2df  CPUcpsid                                                          
0000d2eb  CPUcpsie                                                          
00004b3d  DTC1200_initADC                                                   
0000470b  DTC1200_initDMA                                                   
000047a1  DTC1200_initGPIO                                                  
0000475b  DTC1200_initGeneral                                               
0000480b  DTC1200_initI2C                                                   
000049b9  DTC1200_initQEI                                                   
0000485f  DTC1200_initSPI                                                   
00004907  DTC1200_initUART                                                  
000049a3  DTC1200_initWatchdog                                              
00004bd5  DTC1200_readADC                                                   
0000b4e9  EEPROMInit                                                        
00008601  EEPROMProgram                                                     
0000bddd  EEPROMRead                                                        
0000ce59  EEPROMSizeGet                                                     
0000c4ad  GPIODirModeSet                                                    
000081f3  GPIOIntClear                                                      
0000d23f  GPIOIntStatus                                                     
0000a849  GPIOIntTypeSet                                                    
00007407  GPIOPadConfigSet                                                  
0000aee5  GPIOPinConfigure                                                  
0000cf39  GPIOPinTypeADC                                                    
0000cf4b  GPIOPinTypeGPIOInput                                              
0000cc93  GPIOPinTypeGPIOOutput                                             
0000cf5d  GPIOPinTypeI2C                                                    
0000cf6f  GPIOPinTypeI2CSCL                                                 
0000cf81  GPIOPinTypeQEI                                                    
0000cf93  GPIOPinTypeSSI                                                    
0000cfa5  GPIOPinTypeTimer                                                  
0000cfb7  GPIOPinTypeUART                                                   
00009ac3  GPIOPinWrite                                                      
0000fe80  GPIOTiva_config                                                   
0000a129  GPIO_hwiIntFxn                                                    
0000927d  GPIO_init                                                         
0000aa49  GPIO_setCallback                                                  
00006efd  GPIO_setConfig                                                    
0000aa99  GPIO_write                                                        
00004e41  GetLampMask                                                       
00004d11  GetModeSwitches                                                   
00004d8d  GetTransportMask                                                  
00004ce3  GetTransportSwitches                                              
00005b2f  HOSTclock                                                         
00005af7  HOSTclose                                                         
00005ab9  HOSTgetenv                                                        
00005a5d  HOSTlseek                                                         
00005a0b  HOSTopen                                                          
000059bf  HOSTread                                                          
00005961  HOSTrename                                                        
00005927  HOSTtime                                                          
000058d9  HOSTtime64                                                        
000058a1  HOSTunlink                                                        
00005855  HOSTwrite                                                         
000050d5  I2CMasterControl                                                  
000064dd  I2CMasterDataGet                                                  
00006d95  I2CMasterDataPut                                                  
0000d483  I2CMasterDisable                                                  
0000d48d  I2CMasterEnable                                                   
0000cde9  I2CMasterErr                                                      
0000af2d  I2CMasterInitExpClk                                               
0000d55f  I2CMasterIntClear                                                 
0000d023  I2CMasterIntDisable                                               
0000d629  I2CMasterIntEnable                                                
0000d567  I2CMasterSlaveAddrSet                                             
0000bd39  I2CTiva_close                                                     
0000d62f  I2CTiva_control                                                   
0000fda0  I2CTiva_fxnTable                                                  
0000d497  I2CTiva_init                                                      
00007f65  I2CTiva_open                                                      
0000985b  I2CTiva_transfer                                                  
0000d04d  I2C_Params_init                                                   
0000fb40  I2C_config                                                        
0000febc  I2C_defaultParams                                                 
0000bacd  I2C_init                                                          
0000bfed  I2C_open                                                          
00004c95  IOExpander_initialize                                             
00003a3b  InitPeripherals                                                   
00003eb5  InitSysDefaults                                                   
0000d05d  IntMasterDisable                                                  
0000d06d  IntMasterEnable                                                   
000040cf  LampBlinkChase                                                    
0000410b  LampBlinkError                                                    
00003af9  MainPollTask                                                      
00006a89  MotorDAC_initialize                                               
00006ae1  MotorDAC_write                                                    
00004a79  QEI0IntHandler                                                    
00004ab5  QEI1IntHandler                                                    
0000d24d  QEIConfigure                                                      
0000d25b  QEIDirectionGet                                                   
0000d4a1  QEIEnable                                                         
0000704d  QEIIntClear                                                       
0000d4ab  QEIIntStatus                                                      
0000d07d  QEIVelocityConfigure                                              
0000d4b5  QEIVelocityEnable                                                 
000082cd  QEIVelocityGet                                                    
00002995  QueueTransportCommand                                             
0000601d  ReadCapstanTach                                                   
00005fcb  ReadTapeTach                                                      
000029f9  RecordDisable                                                     
000029bd  RecordEnable                                                      
00006051  ResetCapstanTach                                                  
00005fff  ResetTapeTach                                                     
0000cfc9  RingBuf_construct                                                 
0000b529  RingBuf_get                                                       
0000d2f7  RingBuf_peek                                                      
0000b171  RingBuf_put                                                       
UNDEFED   SHT$$INIT_ARRAY$$Base                                             
UNDEFED   SHT$$INIT_ARRAY$$Limit                                            
0000b8e5  SPITivaDMA_close                                                  
0000d635  SPITivaDMA_control                                                
0000f7b0  SPITivaDMA_fxnTable                                               
0000b1fd  SPITivaDMA_hwiFxn                                                 
0000d4bf  SPITivaDMA_init                                                   
00008045  SPITivaDMA_open                                                   
000028bf  SPITivaDMA_serviceISR                                             
0000a383  SPITivaDMA_transfer                                               
0000b3e1  SPITivaDMA_transferCancel                                         
0000ce6d  SPI_Params_init                                                   
0000fa34  SPI_config                                                        
0000fc60  SPI_defaultParams                                                 
0000bb05  SPI_init                                                          
0000c01d  SPI_open                                                          
0000d4c9  SPI_transfer                                                      
0000b921  SSIConfigSetExpClk                                                
0000d4d3  SSIDMADisable                                                     
0000d577  SSIDMAEnable                                                      
0000cfdb  SSIDataGetNonBlocking                                             
0000d4dd  SSIDisable                                                        
0000d4e7  SSIEnable                                                         
0000839d  SSIIntClear                                                       
0000d4f1  SSIIntDisable                                                     
0000d57f  SSIIntEnable                                                      
00003199  ServoLoopTask                                                     
00004db9  SetLamp                                                           
00004df3  SetLampMask                                                       
00004d3f  SetTransportMask                                                  
0000776d  SysCtlClockGet                                                    
0000d641  SysCtlDelay                                                       
0000be11  SysCtlPeripheralEnable                                            
0000aae9  SysCtlPeripheralReset                                             
00004021  SysParamsRead                                                     
00003ff5  SysParamsWrite                                                    
00005e81  Tachometer_initialize                                             
000000b9  TerminalTask                                                      
00000041  Terminal_initialize                                               
0000a3e5  TimerConfigure                                                    
0000cdff  TimerControlEvent                                                 
0000d269  TimerEnable                                                       
00008785  TimerIntClear                                                     
0000d587  TimerIntEnable                                                    
0000cfed  TimerLoadSet                                                      
0000cfff  TimerMatchSet                                                     
0000d011  TimerPrescaleSet                                                  
0000d4fb  TimerValueGet                                                     
00002a5d  TransportCommandTask                                              
00002c3d  TransportControllerTask                                           
0000d505  UARTCharGet                                                       
0000d277  UARTCharGetNonBlocking                                            
0000d50f  UARTCharPut                                                       
0000d285  UARTCharPutNonBlocking                                            
0000b423  UARTConfigSetExpClk                                               
0000ca79  UARTDisable                                                       
0000ce81  UARTEnable                                                        
0000d647  UARTFIFOLevelSet                                                  
0000d303  UARTFlowControlSet                                                
00008845  UARTIntClear                                                      
0000d519  UARTIntDisable                                                    
0000d58f  UARTIntEnable                                                     
0000d523  UARTIntStatus                                                     
0000d64d  UARTRxErrorClear                                                  
0000d597  UARTRxErrorGet                                                    
0000acc9  UARTTiva_close                                                    
00009309  UARTTiva_control                                                  
0000faf0  UARTTiva_fxnTable                                                 
0000d30f  UARTTiva_init                                                     
000062d1  UARTTiva_open                                                     
0000b569  UARTTiva_read                                                     
0000bd6f  UARTTiva_readCancel                                               
00008f8b  UARTTiva_readPolling                                              
000090bd  UARTTiva_write                                                    
0000ab39  UARTTiva_writeCancel                                              
0000b4a7  UARTTiva_writePolling                                             
0000ccad  UART_Params_init                                                  
0000fa64  UART_config                                                       
0000fb64  UART_defaultParams                                                
0000bb3d  UART_init                                                         
0000c04d  UART_open                                                         
0000d52d  UART_read                                                         
0000d537  UART_write                                                        
0000d541  WatchdogEnable                                                    
0000d653  WatchdogIntClear                                                  
0000d59f  WatchdogLock                                                      
00008905  WatchdogReloadSet                                                 
0000d54b  WatchdogResetDisable                                              
0000d555  WatchdogResetEnable                                               
0000d293  WatchdogStallDisable                                              
0000d2a1  WatchdogStallEnable                                               
0000d5a7  WatchdogTiva_clear                                                
00006a87  WatchdogTiva_close                                                
0000d659  WatchdogTiva_control                                              
0000fdf0  WatchdogTiva_fxnTable                                             
0000d5af  WatchdogTiva_init                                                 
00008e55  WatchdogTiva_open                                                 
0000ca95  WatchdogTiva_setReload                                            
0000d31d  WatchdogUnlock                                                    
0000fdd8  Watchdog_config                                                   
0000bb75  Watchdog_init                                                     
00000000  __ASM__                                                           
20004000  __CIOBUF_                                                         
0000006d  __ISA__                                                           
00000080  __PLAT__                                                          
20005cf8  __STACK_END                                                       
00000300  __STACK_SIZE                                                      
20005bf8  __STACK_TOP                                                       
000000a1  __TARG__                                                          
000106b8  __TI_CINIT_Base                                                   
000106d0  __TI_CINIT_Limit                                                  
00010698  __TI_Handler_Table_Base                                           
000106a4  __TI_Handler_Table_Limit                                          
00008c79  __TI_auto_init                                                    
20005910  __TI_cleanup_ptr                                                  
00009f21  __TI_decompress_lzss                                              
0000d2af  __TI_decompress_none                                              
20005914  __TI_dtors_ptr                                                    
20005918  __TI_enable_exit_profile_output                                   
ffffffff  __TI_pprof_out_hndl                                               
00001fc5  __TI_printfi                                                      
ffffffff  __TI_prof_data_size                                               
ffffffff  __TI_prof_data_start                                              
00009fbb  __TI_readmsg                                                      
000100b0  __TI_static_base__                                                
00009f89  __TI_writemsg                                                     
0000d329  __TI_zero_init                                                    
000000c7  __TRDR__                                                          
000095c1  __aeabi_cdcmpeq                                                   
000095c1  __aeabi_cdcmple                                                   
00009647  __aeabi_cdrcmple                                                  
0000af75  __aeabi_d2iz                                                      
000068db  __aeabi_dadd                                                      
000072d1  __aeabi_ddiv                                                      
00007b81  __aeabi_dmul                                                      
000068d1  __aeabi_dsub                                                      
0000c2ef  __aeabi_i2d                                                       
00007537  __aeabi_idiv0                                                     
00009a49  __aeabi_memclr                                                    
00009a49  __aeabi_memclr4                                                   
00009a49  __aeabi_memclr8                                                   
00008db9  __aeabi_memcpy                                                    
00008db9  __aeabi_memcpy4                                                   
00008db9  __aeabi_memcpy8                                                   
00009a4b  __aeabi_memset                                                    
00009a4b  __aeabi_memset4                                                   
00009a4b  __aeabi_memset8                                                   
0000b5a9  __aeabi_uidiv                                                     
0000b5a9  __aeabi_uidivmod                                                  
000066dd  __aeabi_uldivmod                                                  
ffffffff  __binit__                                                         
ffffffff  __c_args__                                                        
200059f8  __stack                                                           
0000ccc5  _args_main                                                        
0000a741  _c_int00                                                          
0000f474  _ctypes_                                                          
20005934  _lock                                                             
0000cea3  _nop                                                              
0000ce9b  _register_lock                                                    
0000ce95  _register_unlock                                                  
20005938  _unlock                                                           
0000a8f9  abort                                                             
0000ad15  atoi                                                              
0000ad61  atol                                                              
ffffffff  binit                                                             
0000adad  copy_in                                                           
0000cea9  copysign                                                          
0000cea9  copysignl                                                         
00004149  diag_dacadjust                                                    
000041bd  diag_dacramp                                                      
000045a1  diag_lamp                                                         
000044bd  diag_transport                                                    
200059d8  errno                                                             
0000a901  exit                                                              
00005d15  fpid_calc                                                         
00005c9d  fpid_init                                                         
0000a18d  frexp                                                             
0000a18d  frexpl                                                            
200057e0  g_cmode                                                           
200057d0  g_handleI2C0                                                      
200057d4  g_handleI2C1                                                      
200057dc  g_handleUartIPC                                                   
200057d8  g_handleUartTTY                                                   
200057e8  g_high_speed_flag                                                 
200057e6  g_lamp_blink_mask                                                 
200057e4  g_lamp_mask                                                       
200057e5  g_lamp_mask_prev                                                  
200057c8  g_mailboxCommander                                                
200057cc  g_mailboxController                                               
20003bfc  g_semaSPI                                                         
20004404  g_servo                                                           
200057e7  g_switch_option                                                   
200044cc  g_sys                                                             
200057e9  g_tape_out_flag                                                   
2000593c  gpioCallbackFunctions                                             
20005694  gpioPinConfigs                                                    
0000fe08  i2cTivaHWAttrs                                                    
20004220  i2cTivaObjects                                                    
00005bbf  ipid_calc                                                         
00005b79  ipid_init                                                         
0000d0ad  isalpha                                                           
0000d0bd  isdigit                                                           
00007c7d  ldexp                                                             
00007c7d  ldexpl                                                            
0000a949  ltoa                                                              
00003989  main                                                              
200059dc  main_func_sp                                                      
00000ffb  mc_cmd_fwd                                                        
00000fe1  mc_cmd_play                                                       
00001015  mc_cmd_rew                                                        
00000fc1  mc_cmd_stop                                                       
000010d5  mc_default_config                                                 
00001085  mc_read_config                                                    
0000102f  mc_write_config                                                   
0000cacd  memccpy                                                           
00008db9  memcpy                                                            
00009a51  memset                                                            
00007c7d  scalbn                                                            
00007c7d  scalbnl                                                           
0000f6cc  spiTivaDMAHWAttrs                                                 
20004320  spiTivaDMAObjects                                                 
200046e0  spiTivaDMAscratchBuf                                              
0000a445  sprintf                                                           
0000ce15  strchr                                                            
0000ccdd  strcmp                                                            
0000cebd  strcpy                                                            
0000ced1  strlen                                                            
0000bda5  strncpy                                                           
0000ff1c  ti_catalog_arm_cortexm4_tiva_ce_Boot_A_mustUseEnhancedClockMode__C
0000ff20  ti_catalog_arm_cortexm4_tiva_ce_Boot_Module__diagsEnabled__C      
0000ff24  ti_catalog_arm_cortexm4_tiva_ce_Boot_Module__diagsIncluded__C     
0000ff28  ti_catalog_arm_cortexm4_tiva_ce_Boot_Module__diagsMask__C         
0000efc2  ti_catalog_arm_cortexm4_tiva_ce_Boot_Module__id__C                
0000d03d  ti_catalog_arm_cortexm4_tiva_ce_Boot_init__I                      
00007981  ti_catalog_arm_cortexm4_tiva_ce_Boot_sysCtlClockSetI__I           
00009025  ti_catalog_arm_cortexm4_tiva_ce_Boot_sysCtlClockSet__E            
0000d65f  ti_catalog_arm_cortexm4_tiva_ce_Boot_sysCtlDelayI__I              
200057a4  ti_sysbios_BIOS_Module__state__V                                  
0000d335  ti_sysbios_BIOS_RtsGateProxy_enter__E                             
0000d0ed  ti_sysbios_BIOS_RtsGateProxy_leave__E                             
0000c07d  ti_sysbios_BIOS_atExitFunc__I                                     
0000c0ad  ti_sysbios_BIOS_errorRaiseHook__I                                 
0000ce2b  ti_sysbios_BIOS_exitFunc__I                                       
0000d101  ti_sysbios_BIOS_getCpuFreq__E                                     
0000ff2c  ti_sysbios_BIOS_installedErrorHook__C                             
00008eef  ti_sysbios_BIOS_nullFunc__I                                       
0000c615  ti_sysbios_BIOS_registerRTSLock__I                                
0000c881  ti_sysbios_BIOS_removeRTSLock__I                                  
0000c0dd  ti_sysbios_BIOS_rtsLock__I                                        
0000c31d  ti_sysbios_BIOS_rtsUnlock__I                                      
0000d111  ti_sysbios_BIOS_setThreadType__E                                  
0000c639  ti_sysbios_BIOS_startFunc__I                                      
0000d121  ti_sysbios_BIOS_start__E                                          
200056c4  ti_sysbios_family_arm_lm4_Timer_Module_State_0_device__A          
20005824  ti_sysbios_family_arm_lm4_Timer_Module_State_0_handles__A         
0000cae9  ti_sysbios_family_arm_lm4_Timer_Module__startupDone__F            
0000d5bf  ti_sysbios_family_arm_lm4_Timer_Module__startupDone__S            
2000591c  ti_sysbios_family_arm_lm4_Timer_Module__state__V                  
0000a1f1  ti_sysbios_family_arm_lm4_Timer_Module_startup__E                 
200055e8  ti_sysbios_family_arm_lm4_Timer_Object__table__V                  
0000ff30  ti_sysbios_family_arm_lm4_Timer_enableFunc__C                     
0000b009  ti_sysbios_family_arm_lm4_Timer_enableTimers__I                   
00008b29  ti_sysbios_family_arm_lm4_Timer_enableTiva__I                     
0000d341  ti_sysbios_family_arm_lm4_Timer_getMaxTicks__E                    
0000a9a1  ti_sysbios_family_arm_lm4_Timer_initDevice__I                     
0000b241  ti_sysbios_family_arm_lm4_Timer_isrStub__E                        
0000d5c7  ti_sysbios_family_arm_lm4_Timer_masterDisable__I                  
000089c5  ti_sysbios_family_arm_lm4_Timer_masterEnable__I                   
0000ff34  ti_sysbios_family_arm_lm4_Timer_numTimerDevices__C                
00007879  ti_sysbios_family_arm_lm4_Timer_start__E                          
0000ff38  ti_sysbios_family_arm_lm4_Timer_startupNeeded__C                  
0000b5e9  ti_sysbios_family_arm_lm4_Timer_startup__E                        
0000c111  ti_sysbios_family_arm_lm4_Timer_stop__E                           
0000c791  ti_sysbios_family_arm_lm4_Timer_write__I                          
0000ff3c  ti_sysbios_family_arm_m3_Hwi_E_NMI__C                             
0000ff40  ti_sysbios_family_arm_m3_Hwi_E_alreadyDefined__C                  
0000ff44  ti_sysbios_family_arm_m3_Hwi_E_busFault__C                        
0000ff48  ti_sysbios_family_arm_m3_Hwi_E_debugMon__C                        
0000ff4c  ti_sysbios_family_arm_m3_Hwi_E_hardFault__C                       
0000ff50  ti_sysbios_family_arm_m3_Hwi_E_memFault__C                        
0000ff54  ti_sysbios_family_arm_m3_Hwi_E_noIsr__C                           
0000ff58  ti_sysbios_family_arm_m3_Hwi_E_reserved__C                        
0000ff5c  ti_sysbios_family_arm_m3_Hwi_E_svCall__C                          
0000ff60  ti_sysbios_family_arm_m3_Hwi_E_usageFault__C                      
0000c7b3  ti_sysbios_family_arm_m3_Hwi_Handle__label__S                     
0000be79  ti_sysbios_family_arm_m3_Hwi_Instance_finalize__E                 
00009151  ti_sysbios_family_arm_m3_Hwi_Instance_init__E                     
200059c2  ti_sysbios_family_arm_m3_Hwi_Module_State_0_excActive__A          
200059e0  ti_sysbios_family_arm_m3_Hwi_Module_State_0_excContext__A         
200059e4  ti_sysbios_family_arm_m3_Hwi_Module_State_0_excStack__A           
0000f63a  ti_sysbios_family_arm_m3_Hwi_Module__id__C                        
20005954  ti_sysbios_family_arm_m3_Hwi_Module__root__V                      
0000cb05  ti_sysbios_family_arm_m3_Hwi_Module__startupDone__F               
0000d5cf  ti_sysbios_family_arm_m3_Hwi_Module__startupDone__S               
20005660  ti_sysbios_family_arm_m3_Hwi_Module__state__V                     
0000ab89  ti_sysbios_family_arm_m3_Hwi_Module_startup__E                    
0000ff64  ti_sysbios_family_arm_m3_Hwi_NUM_INTERRUPTS__C                    
0000fc80  ti_sysbios_family_arm_m3_Hwi_Object__DESC__C                      
0000fa94  ti_sysbios_family_arm_m3_Hwi_Object__PARAMS__C                    
0000ff68  ti_sysbios_family_arm_m3_Hwi_Object__count__C                     
0000c8a1  ti_sysbios_family_arm_m3_Hwi_Object__destruct__S                  
0000b629  ti_sysbios_family_arm_m3_Hwi_Object__get__S                       
0000ff6c  ti_sysbios_family_arm_m3_Hwi_Object__table__C                     
2000583c  ti_sysbios_family_arm_m3_Hwi_Object__table__V                     
0000c349  ti_sysbios_family_arm_m3_Hwi_Params__init__S                      
0000ff70  ti_sysbios_family_arm_m3_Hwi_ccr__C                               
0000c8c1  ti_sysbios_family_arm_m3_Hwi_clearInterrupt__E                    
0000a799  ti_sysbios_family_arm_m3_Hwi_construct                            
00009ff1  ti_sysbios_family_arm_m3_Hwi_create                               
0000d34d  ti_sysbios_family_arm_m3_Hwi_destruct                             
0000d359  ti_sysbios_family_arm_m3_Hwi_disableFxn__E                        
0000b051  ti_sysbios_family_arm_m3_Hwi_disableInterrupt__E                  
0000a259  ti_sysbios_family_arm_m3_Hwi_dispatchC__I                         
20003400  ti_sysbios_family_arm_m3_Hwi_dispatchTable                        
00007e71  ti_sysbios_family_arm_m3_Hwi_dispatch__I                          
0000d5d9  ti_sysbios_family_arm_m3_Hwi_doSwiRestore__I                      
0000d669  ti_sysbios_family_arm_m3_Hwi_doTaskRestore__I                     
0000b099  ti_sysbios_family_arm_m3_Hwi_enableInterrupt__E                   
00006c21  ti_sysbios_family_arm_m3_Hwi_excBusFault__I                       
00008789  ti_sysbios_family_arm_m3_Hwi_excDebugMon__I                       
000050d9  ti_sysbios_family_arm_m3_Hwi_excDumpRegs__I                       
0000c8e1  ti_sysbios_family_arm_m3_Hwi_excHandlerAsm__I                     
0000ff74  ti_sysbios_family_arm_m3_Hwi_excHandlerFunc__C                    
000064e1  ti_sysbios_family_arm_m3_Hwi_excHandlerMax__I                     
0000c901  ti_sysbios_family_arm_m3_Hwi_excHandler__I                        
00008849  ti_sysbios_family_arm_m3_Hwi_excHardFault__I                      
0000feec  ti_sysbios_family_arm_m3_Hwi_excHookFuncs__A                      
0000ff78  ti_sysbios_family_arm_m3_Hwi_excHookFuncs__C                      
00007051  ti_sysbios_family_arm_m3_Hwi_excMemFault__I                       
0000beb1  ti_sysbios_family_arm_m3_Hwi_excNmi__I                            
0000bbb1  ti_sysbios_family_arm_m3_Hwi_excNoIsr__I                          
0000b0e1  ti_sysbios_family_arm_m3_Hwi_excReserved__I                       
0000b999  ti_sysbios_family_arm_m3_Hwi_excSvCall__I                         
00006d99  ti_sysbios_family_arm_m3_Hwi_excUsageFault__I                     
0000b289  ti_sysbios_family_arm_m3_Hwi_getStackInfo__E                      
000091e9  ti_sysbios_family_arm_m3_Hwi_initNVIC__E                          
0000a7f1  ti_sysbios_family_arm_m3_Hwi_initStacks__E                        
0000ff7c  ti_sysbios_family_arm_m3_Hwi_nullIsrFunc__C                       
e000e000  ti_sysbios_family_arm_m3_Hwi_nvic                                 
0000c5c9  ti_sysbios_family_arm_m3_Hwi_pendSV__I                            
0000ccf9  ti_sysbios_family_arm_m3_Hwi_plug__E                              
000096d1  ti_sysbios_family_arm_m3_Hwi_postInit__I                          
0000ff80  ti_sysbios_family_arm_m3_Hwi_priGroup__C                          
20000000  ti_sysbios_family_arm_m3_Hwi_ramVectors                           
00000000  ti_sysbios_family_arm_m3_Hwi_resetVectors                         
0000d671  ti_sysbios_family_arm_m3_Hwi_restoreFxn__E                        
0000c5ed  ti_sysbios_family_arm_m3_Hwi_return                               
0000d5e1  ti_sysbios_family_arm_m3_Hwi_startup__E                           
0000cee9  ti_sysbios_family_arm_m3_Hwi_switchFromBootStack__E               
000091e5  ti_sysbios_family_arm_m3_TaskSupport_Module__startupDone__S       
00009395  ti_sysbios_family_arm_m3_TaskSupport_buildTaskStack               
0000d369  ti_sysbios_family_arm_m3_TaskSupport_checkStack__E                
0000d379  ti_sysbios_family_arm_m3_TaskSupport_getStackAlignment__E         
0000d131  ti_sysbios_family_arm_m3_TaskSupport_glue                         
0000ff84  ti_sysbios_family_arm_m3_TaskSupport_stackAlignment__C            
0000c141  ti_sysbios_family_arm_m3_TaskSupport_start__E                     
0000cd11  ti_sysbios_family_arm_m3_TaskSupport_swap__E                      
0000ca1f  ti_sysbios_family_xxx_Hwi_switchAndRunFunc                        
0000c7d5  ti_sysbios_gates_GateHwi_Handle__label__S                         
0000d6c1  ti_sysbios_gates_GateHwi_Instance_init__E                         
0000fb88  ti_sysbios_gates_GateHwi_Module__FXNS__C                          
2000595c  ti_sysbios_gates_GateHwi_Module__root__V                          
0000fca0  ti_sysbios_gates_GateHwi_Object__DESC__C                          
0000fe20  ti_sysbios_gates_GateHwi_Object__PARAMS__C                        
0000b669  ti_sysbios_gates_GateHwi_Object__create__S                        
0000c65d  ti_sysbios_gates_GateHwi_Object__delete__S                        
200059e8  ti_sysbios_gates_GateHwi_Object__table__V                         
0000d389  ti_sysbios_gates_GateHwi_enter__E                                 
0000d679  ti_sysbios_gates_GateHwi_leave__E                                 
0000d6a9  ti_sysbios_gates_GateHwi_query__E                                 
0000c7f7  ti_sysbios_gates_GateMutex_Handle__label__S                       
0000ff88  ti_sysbios_gates_GateMutex_Instance_State_sem__O                  
0000d141  ti_sysbios_gates_GateMutex_Instance_finalize__E                   
0000cb21  ti_sysbios_gates_GateMutex_Instance_init__E                       
0000fbac  ti_sysbios_gates_GateMutex_Module__FXNS__C                        
20005964  ti_sysbios_gates_GateMutex_Module__root__V                        
0000fcc0  ti_sysbios_gates_GateMutex_Object__DESC__C                        
0000fe38  ti_sysbios_gates_GateMutex_Object__PARAMS__C                      
0000b6a9  ti_sysbios_gates_GateMutex_Object__create__S                      
0000c501  ti_sysbios_gates_GateMutex_Object__delete__S                      
20005628  ti_sysbios_gates_GateMutex_Object__table__V                       
0000c171  ti_sysbios_gates_GateMutex_enter__E                               
0000cd29  ti_sysbios_gates_GateMutex_leave__E                               
0000d6b1  ti_sysbios_gates_GateMutex_query__E                               
0000ff8c  ti_sysbios_hal_Hwi_E_stackOverflow__C                             
0000d5e9  ti_sysbios_hal_Hwi_HwiProxy_Module__startupDone__S                
0000cefd  ti_sysbios_hal_Hwi_HwiProxy_getStackInfo__E                       
0000d5f1  ti_sysbios_hal_Hwi_HwiProxy_startup__E                            
0000d5f9  ti_sysbios_hal_Hwi_HwiProxy_switchFromBootStack__E                
0000fdd6  ti_sysbios_hal_Hwi_Module__id__C                                  
0000d029  ti_sysbios_hal_Hwi_Module_startup__E                              
0000bee9  ti_sysbios_hal_Hwi_checkStack                                     
0000cefd  ti_sysbios_hal_Hwi_getStackInfo__E                                
0000bfb9  ti_sysbios_hal_Hwi_initStack                                      
0000d5f1  ti_sysbios_hal_Hwi_startup__E                                     
0000d5f9  ti_sysbios_hal_Hwi_switchFromBootStack__E                         
0000ff90  ti_sysbios_heaps_HeapMem_E_memory__C                              
0000c819  ti_sysbios_heaps_HeapMem_Handle__label__S                         
20000400  ti_sysbios_heaps_HeapMem_Instance_State_0_buf__A                  
0000b6e9  ti_sysbios_heaps_HeapMem_Instance_init__E                         
0000d395  ti_sysbios_heaps_HeapMem_Module_GateProxy_enter__E                
0000d151  ti_sysbios_heaps_HeapMem_Module_GateProxy_leave__E                
0000d3a1  ti_sysbios_heaps_HeapMem_Module_GateProxy_query__E                
0000fb18  ti_sysbios_heaps_HeapMem_Module__FXNS__C                          
0000ff94  ti_sysbios_heaps_HeapMem_Module__gateObj__C                       
0000feba  ti_sysbios_heaps_HeapMem_Module__id__C                            
2000596c  ti_sysbios_heaps_HeapMem_Module__root__V                          
0000fce0  ti_sysbios_heaps_HeapMem_Object__DESC__C                          
0000fbd0  ti_sysbios_heaps_HeapMem_Object__PARAMS__C                        
0000ff98  ti_sysbios_heaps_HeapMem_Object__count__C                         
0000b729  ti_sysbios_heaps_HeapMem_Object__create__S                        
0000c681  ti_sysbios_heaps_HeapMem_Object__delete__S                        
0000b769  ti_sysbios_heaps_HeapMem_Object__get__S                           
0000ff9c  ti_sysbios_heaps_HeapMem_Object__table__C                         
20005854  ti_sysbios_heaps_HeapMem_Object__table__V                         
000082d1  ti_sysbios_heaps_HeapMem_alloc__E                                 
000098d9  ti_sysbios_heaps_HeapMem_free__E                                  
0000adf9  ti_sysbios_heaps_HeapMem_getStats__E                              
0000b9d9  ti_sysbios_heaps_HeapMem_init__I                                  
0000d681  ti_sysbios_heaps_HeapMem_isBlocking__E                            
0000ffa0  ti_sysbios_heaps_HeapMem_reqAlign__C                              
0000cb41  ti_sysbios_knl_Clock_Instance_finalize__E                         
0000abd9  ti_sysbios_knl_Clock_Instance_init__E                             
0000ffa4  ti_sysbios_knl_Clock_Module_State_clockQ__O                       
20005974  ti_sysbios_knl_Clock_Module__root__V                              
20005750  ti_sysbios_knl_Clock_Module__state__V                             
0000c6a9  ti_sysbios_knl_Clock_Module_startup__E                            
0000fd00  ti_sysbios_knl_Clock_Object__DESC__C                              
0000fbf4  ti_sysbios_knl_Clock_Object__PARAMS__C                            
0000c921  ti_sysbios_knl_Clock_Object__destruct__S                          
0000c375  ti_sysbios_knl_Clock_Params__init__S                              
0000d601  ti_sysbios_knl_Clock_TimerProxy_Module__startupDone__S            
0000d3ad  ti_sysbios_knl_Clock_TimerProxy_getMaxTicks__E                    
0000c529  ti_sysbios_knl_Clock_addI__E                                      
0000bbe9  ti_sysbios_knl_Clock_construct                                    
0000d3b9  ti_sysbios_knl_Clock_destruct                                     
0000bc21  ti_sysbios_knl_Clock_doTick__I                                    
0000d6c9  ti_sysbios_knl_Clock_logTick__E                                   
0000c6d1  ti_sysbios_knl_Clock_start__E                                     
0000d689  ti_sysbios_knl_Clock_stop__E                                      
00009d01  ti_sysbios_knl_Clock_workFunc__E                                  
0000ffa8  ti_sysbios_knl_Idle_funcList__A                                   
0000fef4  ti_sysbios_knl_Idle_funcList__C                                   
0000d2c1  ti_sysbios_knl_Idle_loop__E                                       
0000c941  ti_sysbios_knl_Idle_run__E                                        
0000ffac  ti_sysbios_knl_Mailbox_Instance_State_dataQue__O                  
0000ffb0  ti_sysbios_knl_Mailbox_Instance_State_dataSem__O                  
0000ffb4  ti_sysbios_knl_Mailbox_Instance_State_freeQue__O                  
0000ffb8  ti_sysbios_knl_Mailbox_Instance_State_freeSem__O                  
00009b41  ti_sysbios_knl_Mailbox_Instance_finalize__E                       
000081f9  ti_sysbios_knl_Mailbox_Instance_init__E                           
2000597c  ti_sysbios_knl_Mailbox_Module__root__V                            
0000b129  ti_sysbios_knl_Mailbox_Module_startup__E                          
0000fd20  ti_sysbios_knl_Mailbox_Object__DESC__C                            
0000fa00  ti_sysbios_knl_Mailbox_Object__PARAMS__C                          
0000ffbc  ti_sysbios_knl_Mailbox_Object__count__C                           
0000b7a9  ti_sysbios_knl_Mailbox_Object__get__S                             
0000ffc0  ti_sysbios_knl_Mailbox_Object__table__C                           
0000c3a1  ti_sysbios_knl_Mailbox_Params__init__S                            
0000a059  ti_sysbios_knl_Mailbox_create                                     
0000ffc4  ti_sysbios_knl_Mailbox_maxTypeAlign__C                            
00009ac9  ti_sysbios_knl_Mailbox_pend__E                                    
0000c1a1  ti_sysbios_knl_Mailbox_postInit__I                                
00009539  ti_sysbios_knl_Mailbox_post__E                                    
0000d691  ti_sysbios_knl_Queue_Instance_init__E                             
20005984  ti_sysbios_knl_Queue_Module__root__V                              
0000fd40  ti_sysbios_knl_Queue_Object__DESC__C                              
0000fe50  ti_sysbios_knl_Queue_Object__PARAMS__C                            
0000ffc8  ti_sysbios_knl_Queue_Object__count__C                             
0000cb5d  ti_sysbios_knl_Queue_Object__destruct__S                          
0000bc59  ti_sysbios_knl_Queue_Object__get__S                               
0000ffcc  ti_sysbios_knl_Queue_Object__table__C                             
0000c1d1  ti_sysbios_knl_Queue_construct                                    
0000d3c5  ti_sysbios_knl_Queue_destruct                                     
0000d2d1  ti_sysbios_knl_Queue_empty__E                                     
0000cb79  ti_sysbios_knl_Queue_get__E                                       
0000cb99  ti_sysbios_knl_Queue_put__E                                       
0000ffd0  ti_sysbios_knl_Semaphore_Instance_State_pendQ__O                  
0000d161  ti_sysbios_knl_Semaphore_Instance_finalize__E                     
0000c6f9  ti_sysbios_knl_Semaphore_Instance_init__E                         
2000598c  ti_sysbios_knl_Semaphore_Module__root__V                          
0000fd60  ti_sysbios_knl_Semaphore_Object__DESC__C                          
0000fc18  ti_sysbios_knl_Semaphore_Object__PARAMS__C                        
0000c961  ti_sysbios_knl_Semaphore_Object__destruct__S                      
0000c3cd  ti_sysbios_knl_Semaphore_Params__init__S                          
0000bf1d  ti_sysbios_knl_Semaphore_construct                                
0000b7e9  ti_sysbios_knl_Semaphore_create                                   
0000d3d1  ti_sysbios_knl_Semaphore_destruct                                 
0000c201  ti_sysbios_knl_Semaphore_pendTimeout__I                           
00007199  ti_sysbios_knl_Semaphore_pend__E                                  
00009bb1  ti_sysbios_knl_Semaphore_post__E                                  
0000c83b  ti_sysbios_knl_Swi_Handle__label__S                               
20005458  ti_sysbios_knl_Swi_Module_State_0_readyQ__A                       
20005808  ti_sysbios_knl_Swi_Module__state__V                               
0000c551  ti_sysbios_knl_Swi_Module_startup__E                              
0000ffd4  ti_sysbios_knl_Swi_Object__count__C                               
0000b829  ti_sysbios_knl_Swi_Object__get__S                                 
0000ffd8  ti_sysbios_knl_Swi_Object__table__C                               
200056f4  ti_sysbios_knl_Swi_Object__table__V                               
0000d171  ti_sysbios_knl_Swi_disable__E                                     
0000b2d1  ti_sysbios_knl_Swi_post__E                                        
00009d71  ti_sysbios_knl_Swi_restoreHwi__E                                  
0000ba19  ti_sysbios_knl_Swi_restore__E                                     
0000ae49  ti_sysbios_knl_Swi_runLoop__I                                     
0000a569  ti_sysbios_knl_Swi_run__I                                         
0000a5c9  ti_sysbios_knl_Swi_schedule__I                                    
0000d699  ti_sysbios_knl_Swi_startup__E                                     
0000ffdc  ti_sysbios_knl_Task_E_spOutOfBounds__C                            
0000ffe0  ti_sysbios_knl_Task_E_stackOverflow__C                            
0000c85d  ti_sysbios_knl_Task_Handle__label__S                              
200039c8  ti_sysbios_knl_Task_Instance_State_0_stack__A                     
00008909  ti_sysbios_knl_Task_Instance_finalize__E                          
000083a1  ti_sysbios_knl_Task_Instance_init__E                              
200059ec  ti_sysbios_knl_Task_Module_State_0_idleTask__A                    
200054d8  ti_sysbios_knl_Task_Module_State_0_readyQ__A                      
0000ffe4  ti_sysbios_knl_Task_Module_State_inactiveQ__O                     
00010098  ti_sysbios_knl_Task_Module__id__C                                 
20005994  ti_sysbios_knl_Task_Module__root__V                               
200055a4  ti_sysbios_knl_Task_Module__state__V                              
0000a629  ti_sysbios_knl_Task_Module_startup__E                             
0000fd80  ti_sysbios_knl_Task_Object__DESC__C                               
0000f98c  ti_sysbios_knl_Task_Object__PARAMS__C                             
0000ffe8  ti_sysbios_knl_Task_Object__count__C                              
0000ba55  ti_sysbios_knl_Task_Object__get__S                                
0000ffec  ti_sysbios_knl_Task_Object__table__C                              
20005558  ti_sysbios_knl_Task_Object__table__V                              
0000c3f9  ti_sysbios_knl_Task_Params__init__S                               
0000d609  ti_sysbios_knl_Task_SupportProxy_Module__startupDone__S           
0000d181  ti_sysbios_knl_Task_SupportProxy_checkStack__E                    
0000d611  ti_sysbios_knl_Task_SupportProxy_getStackAlignment__E             
0000ca3d  ti_sysbios_knl_Task_SupportProxy_start__E                         
0000d191  ti_sysbios_knl_Task_SupportProxy_swap__E                          
0000fff0  ti_sysbios_knl_Task_allBlockedFunc__C                             
0000ae99  ti_sysbios_knl_Task_allBlockedFunction__I                         
000089c9  ti_sysbios_knl_Task_checkStacks__E                                
0000a2bd  ti_sysbios_knl_Task_create                                        
0000fff4  ti_sysbios_knl_Task_defaultStackHeap__C                           
0000fff8  ti_sysbios_knl_Task_defaultStackSize__C                           
0000d1a1  ti_sysbios_knl_Task_disable__E                                    
0000cbb9  ti_sysbios_knl_Task_enter__I                                      
00009c21  ti_sysbios_knl_Task_exit__E                                       
0000fffc  ti_sysbios_knl_Task_numConstructedTasks__C                        
00009421  ti_sysbios_knl_Task_postInit__I                                   
0000bc91  ti_sysbios_knl_Task_processVitalTaskFlag__I                       
0000c721  ti_sysbios_knl_Task_restoreHwi__E                                 
0000c429  ti_sysbios_knl_Task_restore__E                                    
0000a4a9  ti_sysbios_knl_Task_schedule__I                                   
0000cd41  ti_sysbios_knl_Task_sleepTimeout__I                               
00008539  ti_sysbios_knl_Task_sleep__E                                      
0000a689  ti_sysbios_knl_Task_startCore__E                                  
0000d6b9  ti_sysbios_knl_Task_startup__E                                    
0000cd1d  ti_sysbios_knl_Task_swapReturn                                    
0000c231  ti_sysbios_knl_Task_unblockI__E                                   
0000ce41  ti_sysbios_knl_Task_unblock__E                                    
0000d0cd  tolower                                                           
0000d0dd  toupper                                                           
000075a1  tty_aputs                                                         
00007579  tty_cls                                                           
000075dd  tty_erase_eol                                                     
000075d3  tty_erase_line                                                    
00007539  tty_getc                                                          
000075b9  tty_pos                                                           
000075e7  tty_printf                                                        
00007563  tty_putc                                                          
00007589  tty_puts                                                          
00007577  tty_rxflush                                                       
0000c455  uDMAChannelAssign                                                 
0000c745  uDMAChannelControlSet                                             
0000cd59  uDMAChannelDisable                                                
0000cd71  uDMAChannelEnable                                                 
0000cd89  uDMAChannelIsEnabled                                              
00009755  uDMAChannelTransferSet                                            
0000d3dd  uDMAControlBaseSet                                                
0000d1b1  uDMAEnable                                                        
0000d3e9  uDMAErrorStatusClear                                              
0000d3f5  uDMAErrorStatusGet                                                
0000d401  uDMAIntStatus                                                     
0000f944  uartTivaHWAttrs                                                   
20003760  uartTivaObjects                                                   
20004614  uartTivaRingBuffer                                                
0000afbd  vsprintf                                                          
0000fecc  watchdogTivaHWAttrs                                               
20004694  watchdogTivaObjects                                               
00010000  xdc_runtime_Assert_E_assertFailed__C                              
0000a9f5  xdc_runtime_Assert_raise__I                                       
00010004  xdc_runtime_Core_A_initializedParams__C                           
00010008  xdc_runtime_Core_Module__diagsEnabled__C                          
0001000c  xdc_runtime_Core_Module__diagsIncluded__C                         
00010010  xdc_runtime_Core_Module__diagsMask__C                             
0001009a  xdc_runtime_Core_Module__id__C                                    
0000bf51  xdc_runtime_Core_assignLabel__I                                   
0000b1b7  xdc_runtime_Core_assignParams__I                                  
0000846d  xdc_runtime_Core_constructObject__I                               
00007a81  xdc_runtime_Core_createObject__I                                  
0000a0c1  xdc_runtime_Core_deleteObject__I                                  
00010014  xdc_runtime_Error_E_memory__C                                     
00010018  xdc_runtime_Error_Module__diagsEnabled__C                         
0001001c  xdc_runtime_Error_Module__diagsIncluded__C                        
00010020  xdc_runtime_Error_Module__diagsMask__C                            
0001009c  xdc_runtime_Error_Module__loggerDefined__C                        
00010024  xdc_runtime_Error_Module__loggerFxn8__C                           
00010028  xdc_runtime_Error_Module__loggerObj__C                            
200059f4  xdc_runtime_Error_Module__state__V                                
0000cda1  xdc_runtime_Error_check__E                                        
000096cd  xdc_runtime_Error_getSite__E                                      
0000d419  xdc_runtime_Error_init__E                                         
0001009e  xdc_runtime_Error_maxDepth__C                                     
00007655  xdc_runtime_Error_policyDefault__E                                
0001002c  xdc_runtime_Error_policyFxn__C                                    
0000f575  xdc_runtime_Error_policy__C                                       
00009e49  xdc_runtime_Error_print__E                                        
00010030  xdc_runtime_Error_raiseHook__C                                    
0000cbd5  xdc_runtime_Error_raiseX__E                                       
0000b315  xdc_runtime_Error_setX__E                                         
0000d425  xdc_runtime_Gate_enterSystem__E                                   
0000d1c1  xdc_runtime_Gate_leaveSystem__E                                   
00010034  xdc_runtime_IGateProvider_Interface__BASE__C                      
00010038  xdc_runtime_IHeap_Interface__BASE__C                              
0001003c  xdc_runtime_IModule_Interface__BASE__C                            
00010040  xdc_runtime_Log_L_error__C                                        
0000d431  xdc_runtime_Main_Module_GateProxy_enter__E                        
0000d1d1  xdc_runtime_Main_Module_GateProxy_leave__E                        
00010044  xdc_runtime_Main_Module__gateObj__C                               
0000ca5b  xdc_runtime_Memory_HeapProxy_alloc__E                             
0000cf25  xdc_runtime_Memory_HeapProxy_free__E                              
000100a0  xdc_runtime_Memory_Module__id__C                                  
200059f0  xdc_runtime_Memory_Module__state__V                               
00009eb5  xdc_runtime_Memory_alloc__E                                       
0000d43d  xdc_runtime_Memory_calloc__E                                      
00010048  xdc_runtime_Memory_defaultHeapInstance__C                         
0000d1e1  xdc_runtime_Memory_free__E                                        
0000d449  xdc_runtime_Memory_getMaxDefaultTypeAlign__E                      
0000cbf1  xdc_runtime_Memory_valloc__E                                      
2000599c  xdc_runtime_Registry_Module__state__V                             
0000c9a1  xdc_runtime_Registry_findById__E                                  
200059a4  xdc_runtime_Startup_Module__state__V                              
00000001  xdc_runtime_Startup__EXECFXN__C                                   
00000001  xdc_runtime_Startup__RESETFXN__C                                  
0001004c  xdc_runtime_Startup_execImpl__C                                   
0000ac29  xdc_runtime_Startup_exec__E                                       
0000cc0d  xdc_runtime_Startup_exec__I                                       
0000fe94  xdc_runtime_Startup_firstFxns__A                                  
0000fefc  xdc_runtime_Startup_firstFxns__C                                  
0000ff04  xdc_runtime_Startup_lastFxns__C                                   
00010050  xdc_runtime_Startup_maxPasses__C                                  
00009023  xdc_runtime_Startup_reset__I                                      
0000fea8  xdc_runtime_Startup_sfxnRts__A                                    
00010054  xdc_runtime_Startup_sfxnRts__C                                    
0000fc3c  xdc_runtime_Startup_sfxnTab__A                                    
00010058  xdc_runtime_Startup_sfxnTab__C                                    
0001005c  xdc_runtime_Startup_startModsFxn__C                               
00007d79  xdc_runtime_Startup_startMods__I                                  
20003e00  xdc_runtime_SysMin_Module_State_0_outbuf__A                       
20005928  xdc_runtime_SysMin_Module__state__V                               
0000c9c1  xdc_runtime_SysMin_Module_startup__E                              
0000c261  xdc_runtime_SysMin_abort__E                                       
00010060  xdc_runtime_SysMin_bufSize__C                                     
0000cc29  xdc_runtime_SysMin_exit__E                                        
000100a2  xdc_runtime_SysMin_flushAtExit__C                                 
0000b359  xdc_runtime_SysMin_flush__E                                       
00010064  xdc_runtime_SysMin_outputFunc__C                                  
0000b8a7  xdc_runtime_SysMin_output__I                                      
0000bcc9  xdc_runtime_SysMin_putch__E                                       
0000d1f1  xdc_runtime_SysMin_ready__E                                       
0000d455  xdc_runtime_System_Module_GateProxy_enter__E                      
0000d201  xdc_runtime_System_Module_GateProxy_leave__E                      
200059ac  xdc_runtime_System_Module_State_0_atexitHandlers__A               
00010068  xdc_runtime_System_Module__gateObj__C                             
200059b4  xdc_runtime_System_Module__state__V                               
0000d69f  xdc_runtime_System_Module_startup__E                              
0000d461  xdc_runtime_System_SupportProxy_abort__E                          
0000d46d  xdc_runtime_System_SupportProxy_exit__E                           
0000d211  xdc_runtime_System_SupportProxy_putch__E                          
0000d621  xdc_runtime_System_SupportProxy_ready__E                          
0001006c  xdc_runtime_System_abortFxn__C                                    
0000a8f9  xdc_runtime_System_abortStd__E                                    
0000cc45  xdc_runtime_System_abort__E                                       
0000c579  xdc_runtime_System_aprintf__E                                     
00009b3d  xdc_runtime_System_aprintf_va__F                                  
0000bd01  xdc_runtime_System_atexit__E                                      
0000c5ef  xdc_runtime_System_avprintf__E                                    
00005509  xdc_runtime_System_doPrint__I                                     
00010070  xdc_runtime_System_exitFxn__C                                     
0000a901  xdc_runtime_System_exitStd__E                                     
0000cdb9  xdc_runtime_System_exit__E                                        
00010074  xdc_runtime_System_extendFxn__C                                   
00009c91  xdc_runtime_System_formatNum__I                                   
00010078  xdc_runtime_System_maxAtexitHandlers__C                           
000060b5  xdc_runtime_System_printfExtend__I                                
0000c5a1  xdc_runtime_System_printf__E                                      
00009d6d  xdc_runtime_System_printf_va__F                                   
0000c291  xdc_runtime_System_processAtExit__E                               
0000c4d7  xdc_runtime_System_putchar__I                                     
0000c769  xdc_runtime_System_vprintf__E                                     
0000d221  xdc_runtime_System_vsnprintf__E                                   
000100a4  xdc_runtime_Text_charCnt__C                                       
0000d6cc  xdc_runtime_Text_charTab__A                                       
0001007c  xdc_runtime_Text_charTab__C                                       
0000c481  xdc_runtime_Text_cordText__E                                      
000100a6  xdc_runtime_Text_isLoaded__C                                      
00010080  xdc_runtime_Text_nameEmpty__C                                     
00010084  xdc_runtime_Text_nameStatic__C                                    
00010088  xdc_runtime_Text_nameUnknown__C                                   
0000f576  xdc_runtime_Text_nodeTab__A                                       
0001008c  xdc_runtime_Text_nodeTab__C                                       
0000bf85  xdc_runtime_Text_printVisFxn__I                                   
0000a6e5  xdc_runtime_Text_putLab__E                                        
00008d19  xdc_runtime_Text_putMod__E                                        
00008ef1  xdc_runtime_Text_putSite__E                                       
000100a8  xdc_runtime_Text_registryModsLastId__C                            
0000cdd1  xdc_runtime_Text_ropeText__E                                      
000100aa  xdc_runtime_Text_unnamedModsLastId__C                             
0000ac79  xdc_runtime_Text_visitRope2__I                                    
00010090  xdc_runtime_Text_visitRopeFxn__C                                  
0000c9e1  xdc_runtime_Text_visitRope__I                                     
0000b39d  xdc_runtime_Text_xprintf__I                                       


GLOBAL SYMBOLS: SORTED BY Symbol Address 

address   name                                                              
-------   ----                                                              
00000000  __ASM__                                                           
00000000  ti_sysbios_family_arm_m3_Hwi_resetVectors                         
00000001  xdc_runtime_Startup__EXECFXN__C                                   
00000001  xdc_runtime_Startup__RESETFXN__C                                  
00000041  Terminal_initialize                                               
0000006d  __ISA__                                                           
00000080  __PLAT__                                                          
000000a1  __TARG__                                                          
000000b9  TerminalTask                                                      
000000c7  __TRDR__                                                          
00000300  __STACK_SIZE                                                      
00000fc1  mc_cmd_stop                                                       
00000fe1  mc_cmd_play                                                       
00000ffb  mc_cmd_fwd                                                        
00001015  mc_cmd_rew                                                        
0000102f  mc_write_config                                                   
00001085  mc_read_config                                                    
000010d5  mc_default_config                                                 
00001fc5  __TI_printfi                                                      
000028bf  SPITivaDMA_serviceISR                                             
00002995  QueueTransportCommand                                             
000029bd  RecordEnable                                                      
000029f9  RecordDisable                                                     
00002a5d  TransportCommandTask                                              
00002c3d  TransportControllerTask                                           
00003199  ServoLoopTask                                                     
00003989  main                                                              
00003a3b  InitPeripherals                                                   
00003af9  MainPollTask                                                      
00003eb5  InitSysDefaults                                                   
00003ff5  SysParamsWrite                                                    
00004021  SysParamsRead                                                     
000040cf  LampBlinkChase                                                    
0000410b  LampBlinkError                                                    
00004149  diag_dacadjust                                                    
000041bd  diag_dacramp                                                      
000044bd  diag_transport                                                    
000045a1  diag_lamp                                                         
0000470b  DTC1200_initDMA                                                   
0000475b  DTC1200_initGeneral                                               
000047a1  DTC1200_initGPIO                                                  
0000480b  DTC1200_initI2C                                                   
0000485f  DTC1200_initSPI                                                   
00004907  DTC1200_initUART                                                  
000049a3  DTC1200_initWatchdog                                              
000049b9  DTC1200_initQEI                                                   
00004a79  QEI0IntHandler                                                    
00004ab5  QEI1IntHandler                                                    
00004b3d  DTC1200_initADC                                                   
00004bd5  DTC1200_readADC                                                   
00004c95  IOExpander_initialize                                             
00004ce3  GetTransportSwitches                                              
00004d11  GetModeSwitches                                                   
00004d3f  SetTransportMask                                                  
00004d8d  GetTransportMask                                                  
00004db9  SetLamp                                                           
00004df3  SetLampMask                                                       
00004e41  GetLampMask                                                       
000050d5  I2CMasterControl                                                  
000050d9  ti_sysbios_family_arm_m3_Hwi_excDumpRegs__I                       
00005509  xdc_runtime_System_doPrint__I                                     
00005855  HOSTwrite                                                         
000058a1  HOSTunlink                                                        
000058d9  HOSTtime64                                                        
00005927  HOSTtime                                                          
00005961  HOSTrename                                                        
000059bf  HOSTread                                                          
00005a0b  HOSTopen                                                          
00005a5d  HOSTlseek                                                         
00005ab9  HOSTgetenv                                                        
00005af7  HOSTclose                                                         
00005b2f  HOSTclock                                                         
00005b79  ipid_init                                                         
00005bbf  ipid_calc                                                         
00005c9d  fpid_init                                                         
00005d15  fpid_calc                                                         
00005e81  Tachometer_initialize                                             
00005fcb  ReadTapeTach                                                      
00005fff  ResetTapeTach                                                     
0000601d  ReadCapstanTach                                                   
00006051  ResetCapstanTach                                                  
000060b5  xdc_runtime_System_printfExtend__I                                
000062d1  UARTTiva_open                                                     
000064dd  I2CMasterDataGet                                                  
000064e1  ti_sysbios_family_arm_m3_Hwi_excHandlerMax__I                     
000066dd  __aeabi_uldivmod                                                  
000068d1  __aeabi_dsub                                                      
000068db  __aeabi_dadd                                                      
00006a87  WatchdogTiva_close                                                
00006a89  MotorDAC_initialize                                               
00006ae1  MotorDAC_write                                                    
00006c21  ti_sysbios_family_arm_m3_Hwi_excBusFault__I                       
00006d95  I2CMasterDataPut                                                  
00006d99  ti_sysbios_family_arm_m3_Hwi_excUsageFault__I                     
00006efd  GPIO_setConfig                                                    
0000704d  QEIIntClear                                                       
00007051  ti_sysbios_family_arm_m3_Hwi_excMemFault__I                       
00007199  ti_sysbios_knl_Semaphore_pend__E                                  
000072d1  __aeabi_ddiv                                                      
00007407  GPIOPadConfigSet                                                  
00007537  __aeabi_idiv0                                                     
00007539  tty_getc                                                          
00007563  tty_putc                                                          
00007577  tty_rxflush                                                       
00007579  tty_cls                                                           
00007589  tty_puts                                                          
000075a1  tty_aputs                                                         
000075b9  tty_pos                                                           
000075d3  tty_erase_line                                                    
000075dd  tty_erase_eol                                                     
000075e7  tty_printf                                                        
00007655  xdc_runtime_Error_policyDefault__E                                
0000776d  SysCtlClockGet                                                    
00007879  ti_sysbios_family_arm_lm4_Timer_start__E                          
00007981  ti_catalog_arm_cortexm4_tiva_ce_Boot_sysCtlClockSetI__I           
00007a81  xdc_runtime_Core_createObject__I                                  
00007b81  __aeabi_dmul                                                      
00007c7d  ldexp                                                             
00007c7d  ldexpl                                                            
00007c7d  scalbn                                                            
00007c7d  scalbnl                                                           
00007d79  xdc_runtime_Startup_startMods__I                                  
00007e71  ti_sysbios_family_arm_m3_Hwi_dispatch__I                          
00007f65  I2CTiva_open                                                      
00008045  SPITivaDMA_open                                                   
000081f3  GPIOIntClear                                                      
000081f9  ti_sysbios_knl_Mailbox_Instance_init__E                           
000082cd  QEIVelocityGet                                                    
000082d1  ti_sysbios_heaps_HeapMem_alloc__E                                 
0000839d  SSIIntClear                                                       
000083a1  ti_sysbios_knl_Task_Instance_init__E                              
0000846d  xdc_runtime_Core_constructObject__I                               
00008539  ti_sysbios_knl_Task_sleep__E                                      
00008601  EEPROMProgram                                                     
00008785  TimerIntClear                                                     
00008789  ti_sysbios_family_arm_m3_Hwi_excDebugMon__I                       
00008845  UARTIntClear                                                      
00008849  ti_sysbios_family_arm_m3_Hwi_excHardFault__I                      
00008905  WatchdogReloadSet                                                 
00008909  ti_sysbios_knl_Task_Instance_finalize__E                          
000089c5  ti_sysbios_family_arm_lm4_Timer_masterEnable__I                   
000089c9  ti_sysbios_knl_Task_checkStacks__E                                
00008b29  ti_sysbios_family_arm_lm4_Timer_enableTiva__I                     
00008c79  __TI_auto_init                                                    
00008d19  xdc_runtime_Text_putMod__E                                        
00008db9  __aeabi_memcpy                                                    
00008db9  __aeabi_memcpy4                                                   
00008db9  __aeabi_memcpy8                                                   
00008db9  memcpy                                                            
00008e55  WatchdogTiva_open                                                 
00008eef  ti_sysbios_BIOS_nullFunc__I                                       
00008ef1  xdc_runtime_Text_putSite__E                                       
00008f8b  UARTTiva_readPolling                                              
00009023  xdc_runtime_Startup_reset__I                                      
00009025  ti_catalog_arm_cortexm4_tiva_ce_Boot_sysCtlClockSet__E            
000090bd  UARTTiva_write                                                    
00009151  ti_sysbios_family_arm_m3_Hwi_Instance_init__E                     
000091e5  ti_sysbios_family_arm_m3_TaskSupport_Module__startupDone__S       
000091e9  ti_sysbios_family_arm_m3_Hwi_initNVIC__E                          
0000927d  GPIO_init                                                         
00009309  UARTTiva_control                                                  
00009395  ti_sysbios_family_arm_m3_TaskSupport_buildTaskStack               
00009421  ti_sysbios_knl_Task_postInit__I                                   
00009539  ti_sysbios_knl_Mailbox_post__E                                    
000095c1  __aeabi_cdcmpeq                                                   
000095c1  __aeabi_cdcmple                                                   
00009647  __aeabi_cdrcmple                                                  
000096cd  xdc_runtime_Error_getSite__E                                      
000096d1  ti_sysbios_family_arm_m3_Hwi_postInit__I                          
00009755  uDMAChannelTransferSet                                            
0000985b  I2CTiva_transfer                                                  
000098d9  ti_sysbios_heaps_HeapMem_free__E                                  
00009955  ADCSequenceStepConfigure                                          
00009a49  __aeabi_memclr                                                    
00009a49  __aeabi_memclr4                                                   
00009a49  __aeabi_memclr8                                                   
00009a4b  __aeabi_memset                                                    
00009a4b  __aeabi_memset4                                                   
00009a4b  __aeabi_memset8                                                   
00009a51  memset                                                            
00009ac3  GPIOPinWrite                                                      
00009ac9  ti_sysbios_knl_Mailbox_pend__E                                    
00009b3d  xdc_runtime_System_aprintf_va__F                                  
00009b41  ti_sysbios_knl_Mailbox_Instance_finalize__E                       
00009bb1  ti_sysbios_knl_Semaphore_post__E                                  
00009c21  ti_sysbios_knl_Task_exit__E                                       
00009c91  xdc_runtime_System_formatNum__I                                   
00009d01  ti_sysbios_knl_Clock_workFunc__E                                  
00009d6d  xdc_runtime_System_printf_va__F                                   
00009d71  ti_sysbios_knl_Swi_restoreHwi__E                                  
00009e49  xdc_runtime_Error_print__E                                        
00009eb5  xdc_runtime_Memory_alloc__E                                       
00009f21  __TI_decompress_lzss                                              
00009f89  __TI_writemsg                                                     
00009fb7  C$$IO$$                                                           
00009fbb  __TI_readmsg                                                      
00009ff1  ti_sysbios_family_arm_m3_Hwi_create                               
0000a059  ti_sysbios_knl_Mailbox_create                                     
0000a0c1  xdc_runtime_Core_deleteObject__I                                  
0000a129  GPIO_hwiIntFxn                                                    
0000a18d  frexp                                                             
0000a18d  frexpl                                                            
0000a1f1  ti_sysbios_family_arm_lm4_Timer_Module_startup__E                 
0000a259  ti_sysbios_family_arm_m3_Hwi_dispatchC__I                         
0000a2bd  ti_sysbios_knl_Task_create                                        
0000a383  SPITivaDMA_transfer                                               
0000a3e5  TimerConfigure                                                    
0000a445  sprintf                                                           
0000a4a9  ti_sysbios_knl_Task_schedule__I                                   
0000a569  ti_sysbios_knl_Swi_run__I                                         
0000a5c9  ti_sysbios_knl_Swi_schedule__I                                    
0000a629  ti_sysbios_knl_Task_Module_startup__E                             
0000a689  ti_sysbios_knl_Task_startCore__E                                  
0000a6e5  xdc_runtime_Text_putLab__E                                        
0000a741  _c_int00                                                          
0000a799  ti_sysbios_family_arm_m3_Hwi_construct                            
0000a7f1  ti_sysbios_family_arm_m3_Hwi_initStacks__E                        
0000a849  GPIOIntTypeSet                                                    
0000a8f5  C$$EXIT                                                           
0000a8f9  abort                                                             
0000a8f9  xdc_runtime_System_abortStd__E                                    
0000a901  exit                                                              
0000a901  xdc_runtime_System_exitStd__E                                     
0000a949  ltoa                                                              
0000a9a1  ti_sysbios_family_arm_lm4_Timer_initDevice__I                     
0000a9f5  xdc_runtime_Assert_raise__I                                       
0000aa49  GPIO_setCallback                                                  
0000aa99  GPIO_write                                                        
0000aae9  SysCtlPeripheralReset                                             
0000ab39  UARTTiva_writeCancel                                              
0000ab89  ti_sysbios_family_arm_m3_Hwi_Module_startup__E                    
0000abd9  ti_sysbios_knl_Clock_Instance_init__E                             
0000ac29  xdc_runtime_Startup_exec__E                                       
0000ac79  xdc_runtime_Text_visitRope2__I                                    
0000acc9  UARTTiva_close                                                    
0000ad15  atoi                                                              
0000ad61  atol                                                              
0000adad  copy_in                                                           
0000adf9  ti_sysbios_heaps_HeapMem_getStats__E                              
0000ae49  ti_sysbios_knl_Swi_runLoop__I                                     
0000ae99  ti_sysbios_knl_Task_allBlockedFunction__I                         
0000aee5  GPIOPinConfigure                                                  
0000af2d  I2CMasterInitExpClk                                               
0000af75  __aeabi_d2iz                                                      
0000afbd  vsprintf                                                          
0000b009  ti_sysbios_family_arm_lm4_Timer_enableTimers__I                   
0000b051  ti_sysbios_family_arm_m3_Hwi_disableInterrupt__E                  
0000b099  ti_sysbios_family_arm_m3_Hwi_enableInterrupt__E                   
0000b0e1  ti_sysbios_family_arm_m3_Hwi_excReserved__I                       
0000b129  ti_sysbios_knl_Mailbox_Module_startup__E                          
0000b171  RingBuf_put                                                       
0000b1b7  xdc_runtime_Core_assignParams__I                                  
0000b1fd  SPITivaDMA_hwiFxn                                                 
0000b241  ti_sysbios_family_arm_lm4_Timer_isrStub__E                        
0000b289  ti_sysbios_family_arm_m3_Hwi_getStackInfo__E                      
0000b2d1  ti_sysbios_knl_Swi_post__E                                        
0000b315  xdc_runtime_Error_setX__E                                         
0000b359  xdc_runtime_SysMin_flush__E                                       
0000b39d  xdc_runtime_Text_xprintf__I                                       
0000b3e1  SPITivaDMA_transferCancel                                         
0000b423  UARTConfigSetExpClk                                               
0000b4a7  UARTTiva_writePolling                                             
0000b4e9  EEPROMInit                                                        
0000b529  RingBuf_get                                                       
0000b569  UARTTiva_read                                                     
0000b5a9  __aeabi_uidiv                                                     
0000b5a9  __aeabi_uidivmod                                                  
0000b5e9  ti_sysbios_family_arm_lm4_Timer_startup__E                        
0000b629  ti_sysbios_family_arm_m3_Hwi_Object__get__S                       
0000b669  ti_sysbios_gates_GateHwi_Object__create__S                        
0000b6a9  ti_sysbios_gates_GateMutex_Object__create__S                      
0000b6e9  ti_sysbios_heaps_HeapMem_Instance_init__E                         
0000b729  ti_sysbios_heaps_HeapMem_Object__create__S                        
0000b769  ti_sysbios_heaps_HeapMem_Object__get__S                           
0000b7a9  ti_sysbios_knl_Mailbox_Object__get__S                             
0000b7e9  ti_sysbios_knl_Semaphore_create                                   
0000b829  ti_sysbios_knl_Swi_Object__get__S                                 
0000b869  ADCSequenceConfigure                                              
0000b8a7  xdc_runtime_SysMin_output__I                                      
0000b8e5  SPITivaDMA_close                                                  
0000b921  SSIConfigSetExpClk                                                
0000b999  ti_sysbios_family_arm_m3_Hwi_excSvCall__I                         
0000b9d9  ti_sysbios_heaps_HeapMem_init__I                                  
0000ba19  ti_sysbios_knl_Swi_restore__E                                     
0000ba55  ti_sysbios_knl_Task_Object__get__S                                
0000bacd  I2C_init                                                          
0000bb05  SPI_init                                                          
0000bb3d  UART_init                                                         
0000bb75  Watchdog_init                                                     
0000bbb1  ti_sysbios_family_arm_m3_Hwi_excNoIsr__I                          
0000bbe9  ti_sysbios_knl_Clock_construct                                    
0000bc21  ti_sysbios_knl_Clock_doTick__I                                    
0000bc59  ti_sysbios_knl_Queue_Object__get__S                               
0000bc91  ti_sysbios_knl_Task_processVitalTaskFlag__I                       
0000bcc9  xdc_runtime_SysMin_putch__E                                       
0000bd01  xdc_runtime_System_atexit__E                                      
0000bd39  I2CTiva_close                                                     
0000bd6f  UARTTiva_readCancel                                               
0000bda5  strncpy                                                           
0000bddd  EEPROMRead                                                        
0000be11  SysCtlPeripheralEnable                                            
0000be79  ti_sysbios_family_arm_m3_Hwi_Instance_finalize__E                 
0000beb1  ti_sysbios_family_arm_m3_Hwi_excNmi__I                            
0000bee9  ti_sysbios_hal_Hwi_checkStack                                     
0000bf1d  ti_sysbios_knl_Semaphore_construct                                
0000bf51  xdc_runtime_Core_assignLabel__I                                   
0000bf85  xdc_runtime_Text_printVisFxn__I                                   
0000bfb9  ti_sysbios_hal_Hwi_initStack                                      
0000bfed  I2C_open                                                          
0000c01d  SPI_open                                                          
0000c04d  UART_open                                                         
0000c07d  ti_sysbios_BIOS_atExitFunc__I                                     
0000c0ad  ti_sysbios_BIOS_errorRaiseHook__I                                 
0000c0dd  ti_sysbios_BIOS_rtsLock__I                                        
0000c111  ti_sysbios_family_arm_lm4_Timer_stop__E                           
0000c141  ti_sysbios_family_arm_m3_TaskSupport_start__E                     
0000c171  ti_sysbios_gates_GateMutex_enter__E                               
0000c1a1  ti_sysbios_knl_Mailbox_postInit__I                                
0000c1d1  ti_sysbios_knl_Queue_construct                                    
0000c201  ti_sysbios_knl_Semaphore_pendTimeout__I                           
0000c231  ti_sysbios_knl_Task_unblockI__E                                   
0000c261  xdc_runtime_SysMin_abort__E                                       
0000c291  xdc_runtime_System_processAtExit__E                               
0000c2c1  ADCIntStatus                                                      
0000c2ef  __aeabi_i2d                                                       
0000c31d  ti_sysbios_BIOS_rtsUnlock__I                                      
0000c349  ti_sysbios_family_arm_m3_Hwi_Params__init__S                      
0000c375  ti_sysbios_knl_Clock_Params__init__S                              
0000c3a1  ti_sysbios_knl_Mailbox_Params__init__S                            
0000c3cd  ti_sysbios_knl_Semaphore_Params__init__S                          
0000c3f9  ti_sysbios_knl_Task_Params__init__S                               
0000c429  ti_sysbios_knl_Task_restore__E                                    
0000c455  uDMAChannelAssign                                                 
0000c481  xdc_runtime_Text_cordText__E                                      
0000c4ad  GPIODirModeSet                                                    
0000c4d7  xdc_runtime_System_putchar__I                                     
0000c501  ti_sysbios_gates_GateMutex_Object__delete__S                      
0000c529  ti_sysbios_knl_Clock_addI__E                                      
0000c551  ti_sysbios_knl_Swi_Module_startup__E                              
0000c579  xdc_runtime_System_aprintf__E                                     
0000c5a1  xdc_runtime_System_printf__E                                      
0000c5c9  ti_sysbios_family_arm_m3_Hwi_pendSV__I                            
0000c5ed  ti_sysbios_family_arm_m3_Hwi_return                               
0000c5ef  xdc_runtime_System_avprintf__E                                    
0000c615  ti_sysbios_BIOS_registerRTSLock__I                                
0000c639  ti_sysbios_BIOS_startFunc__I                                      
0000c65d  ti_sysbios_gates_GateHwi_Object__delete__S                        
0000c681  ti_sysbios_heaps_HeapMem_Object__delete__S                        
0000c6a9  ti_sysbios_knl_Clock_Module_startup__E                            
0000c6d1  ti_sysbios_knl_Clock_start__E                                     
0000c6f9  ti_sysbios_knl_Semaphore_Instance_init__E                         
0000c721  ti_sysbios_knl_Task_restoreHwi__E                                 
0000c745  uDMAChannelControlSet                                             
0000c769  xdc_runtime_System_vprintf__E                                     
0000c791  ti_sysbios_family_arm_lm4_Timer_write__I                          
0000c7b3  ti_sysbios_family_arm_m3_Hwi_Handle__label__S                     
0000c7d5  ti_sysbios_gates_GateHwi_Handle__label__S                         
0000c7f7  ti_sysbios_gates_GateMutex_Handle__label__S                       
0000c819  ti_sysbios_heaps_HeapMem_Handle__label__S                         
0000c83b  ti_sysbios_knl_Swi_Handle__label__S                               
0000c85d  ti_sysbios_knl_Task_Handle__label__S                              
0000c881  ti_sysbios_BIOS_removeRTSLock__I                                  
0000c8a1  ti_sysbios_family_arm_m3_Hwi_Object__destruct__S                  
0000c8c1  ti_sysbios_family_arm_m3_Hwi_clearInterrupt__E                    
0000c8e1  ti_sysbios_family_arm_m3_Hwi_excHandlerAsm__I                     
0000c901  ti_sysbios_family_arm_m3_Hwi_excHandler__I                        
0000c921  ti_sysbios_knl_Clock_Object__destruct__S                          
0000c941  ti_sysbios_knl_Idle_run__E                                        
0000c961  ti_sysbios_knl_Semaphore_Object__destruct__S                      
0000c9a1  xdc_runtime_Registry_findById__E                                  
0000c9c1  xdc_runtime_SysMin_Module_startup__E                              
0000c9e1  xdc_runtime_Text_visitRope__I                                     
0000ca01  ADCSequenceDataGet                                                
0000ca1f  ti_sysbios_family_xxx_Hwi_switchAndRunFunc                        
0000ca3d  ti_sysbios_knl_Task_SupportProxy_start__E                         
0000ca5b  xdc_runtime_Memory_HeapProxy_alloc__E                             
0000ca79  UARTDisable                                                       
0000ca95  WatchdogTiva_setReload                                            
0000cacd  memccpy                                                           
0000cae9  ti_sysbios_family_arm_lm4_Timer_Module__startupDone__F            
0000cb05  ti_sysbios_family_arm_m3_Hwi_Module__startupDone__F               
0000cb21  ti_sysbios_gates_GateMutex_Instance_init__E                       
0000cb41  ti_sysbios_knl_Clock_Instance_finalize__E                         
0000cb5d  ti_sysbios_knl_Queue_Object__destruct__S                          
0000cb79  ti_sysbios_knl_Queue_get__E                                       
0000cb99  ti_sysbios_knl_Queue_put__E                                       
0000cbb9  ti_sysbios_knl_Task_enter__I                                      
0000cbd5  xdc_runtime_Error_raiseX__E                                       
0000cbf1  xdc_runtime_Memory_valloc__E                                      
0000cc0d  xdc_runtime_Startup_exec__I                                       
0000cc29  xdc_runtime_SysMin_exit__E                                        
0000cc45  xdc_runtime_System_abort__E                                       
0000cc7b  ADCProcessorTrigger                                               
0000cc93  GPIOPinTypeGPIOOutput                                             
0000ccad  UART_Params_init                                                  
0000ccc5  _args_main                                                        
0000ccdd  strcmp                                                            
0000ccf9  ti_sysbios_family_arm_m3_Hwi_plug__E                              
0000cd11  ti_sysbios_family_arm_m3_TaskSupport_swap__E                      
0000cd1d  ti_sysbios_knl_Task_swapReturn                                    
0000cd29  ti_sysbios_gates_GateMutex_leave__E                               
0000cd41  ti_sysbios_knl_Task_sleepTimeout__I                               
0000cd59  uDMAChannelDisable                                                
0000cd71  uDMAChannelEnable                                                 
0000cd89  uDMAChannelIsEnabled                                              
0000cda1  xdc_runtime_Error_check__E                                        
0000cdb9  xdc_runtime_System_exit__E                                        
0000cdd1  xdc_runtime_Text_ropeText__E                                      
0000cde9  I2CMasterErr                                                      
0000cdff  TimerControlEvent                                                 
0000ce15  strchr                                                            
0000ce2b  ti_sysbios_BIOS_exitFunc__I                                       
0000ce41  ti_sysbios_knl_Task_unblock__E                                    
0000ce59  EEPROMSizeGet                                                     
0000ce6d  SPI_Params_init                                                   
0000ce81  UARTEnable                                                        
0000ce95  _register_unlock                                                  
0000ce9b  _register_lock                                                    
0000cea3  _nop                                                              
0000cea9  copysign                                                          
0000cea9  copysignl                                                         
0000cebd  strcpy                                                            
0000ced1  strlen                                                            
0000cee9  ti_sysbios_family_arm_m3_Hwi_switchFromBootStack__E               
0000cefd  ti_sysbios_hal_Hwi_HwiProxy_getStackInfo__E                       
0000cefd  ti_sysbios_hal_Hwi_getStackInfo__E                                
0000cf25  xdc_runtime_Memory_HeapProxy_free__E                              
0000cf39  GPIOPinTypeADC                                                    
0000cf4b  GPIOPinTypeGPIOInput                                              
0000cf5d  GPIOPinTypeI2C                                                    
0000cf6f  GPIOPinTypeI2CSCL                                                 
0000cf81  GPIOPinTypeQEI                                                    
0000cf93  GPIOPinTypeSSI                                                    
0000cfa5  GPIOPinTypeTimer                                                  
0000cfb7  GPIOPinTypeUART                                                   
0000cfc9  RingBuf_construct                                                 
0000cfdb  SSIDataGetNonBlocking                                             
0000cfed  TimerLoadSet                                                      
0000cfff  TimerMatchSet                                                     
0000d011  TimerPrescaleSet                                                  
0000d023  I2CMasterIntDisable                                               
0000d029  ti_sysbios_hal_Hwi_Module_startup__E                              
0000d03d  ti_catalog_arm_cortexm4_tiva_ce_Boot_init__I                      
0000d04d  I2C_Params_init                                                   
0000d05d  IntMasterDisable                                                  
0000d06d  IntMasterEnable                                                   
0000d07d  QEIVelocityConfigure                                              
0000d0ad  isalpha                                                           
0000d0bd  isdigit                                                           
0000d0cd  tolower                                                           
0000d0dd  toupper                                                           
0000d0ed  ti_sysbios_BIOS_RtsGateProxy_leave__E                             
0000d101  ti_sysbios_BIOS_getCpuFreq__E                                     
0000d111  ti_sysbios_BIOS_setThreadType__E                                  
0000d121  ti_sysbios_BIOS_start__E                                          
0000d131  ti_sysbios_family_arm_m3_TaskSupport_glue                         
0000d141  ti_sysbios_gates_GateMutex_Instance_finalize__E                   
0000d151  ti_sysbios_heaps_HeapMem_Module_GateProxy_leave__E                
0000d161  ti_sysbios_knl_Semaphore_Instance_finalize__E                     
0000d171  ti_sysbios_knl_Swi_disable__E                                     
0000d181  ti_sysbios_knl_Task_SupportProxy_checkStack__E                    
0000d191  ti_sysbios_knl_Task_SupportProxy_swap__E                          
0000d1a1  ti_sysbios_knl_Task_disable__E                                    
0000d1b1  uDMAEnable                                                        
0000d1c1  xdc_runtime_Gate_leaveSystem__E                                   
0000d1d1  xdc_runtime_Main_Module_GateProxy_leave__E                        
0000d1e1  xdc_runtime_Memory_free__E                                        
0000d1f1  xdc_runtime_SysMin_ready__E                                       
0000d201  xdc_runtime_System_Module_GateProxy_leave__E                      
0000d211  xdc_runtime_System_SupportProxy_putch__E                          
0000d221  xdc_runtime_System_vsnprintf__E                                   
0000d231  ADCSequenceEnable                                                 
0000d23f  GPIOIntStatus                                                     
0000d24d  QEIConfigure                                                      
0000d25b  QEIDirectionGet                                                   
0000d269  TimerEnable                                                       
0000d277  UARTCharGetNonBlocking                                            
0000d285  UARTCharPutNonBlocking                                            
0000d293  WatchdogStallDisable                                              
0000d2a1  WatchdogStallEnable                                               
0000d2af  __TI_decompress_none                                              
0000d2c1  ti_sysbios_knl_Idle_loop__E                                       
0000d2d1  ti_sysbios_knl_Queue_empty__E                                     
0000d2df  CPUcpsid                                                          
0000d2eb  CPUcpsie                                                          
0000d2f7  RingBuf_peek                                                      
0000d303  UARTFlowControlSet                                                
0000d30f  UARTTiva_init                                                     
0000d31d  WatchdogUnlock                                                    
0000d329  __TI_zero_init                                                    
0000d335  ti_sysbios_BIOS_RtsGateProxy_enter__E                             
0000d341  ti_sysbios_family_arm_lm4_Timer_getMaxTicks__E                    
0000d34d  ti_sysbios_family_arm_m3_Hwi_destruct                             
0000d359  ti_sysbios_family_arm_m3_Hwi_disableFxn__E                        
0000d369  ti_sysbios_family_arm_m3_TaskSupport_checkStack__E                
0000d379  ti_sysbios_family_arm_m3_TaskSupport_getStackAlignment__E         
0000d389  ti_sysbios_gates_GateHwi_enter__E                                 
0000d395  ti_sysbios_heaps_HeapMem_Module_GateProxy_enter__E                
0000d3a1  ti_sysbios_heaps_HeapMem_Module_GateProxy_query__E                
0000d3ad  ti_sysbios_knl_Clock_TimerProxy_getMaxTicks__E                    
0000d3b9  ti_sysbios_knl_Clock_destruct                                     
0000d3c5  ti_sysbios_knl_Queue_destruct                                     
0000d3d1  ti_sysbios_knl_Semaphore_destruct                                 
0000d3dd  uDMAControlBaseSet                                                
0000d3e9  uDMAErrorStatusClear                                              
0000d3f5  uDMAErrorStatusGet                                                
0000d401  uDMAIntStatus                                                     
0000d419  xdc_runtime_Error_init__E                                         
0000d425  xdc_runtime_Gate_enterSystem__E                                   
0000d431  xdc_runtime_Main_Module_GateProxy_enter__E                        
0000d43d  xdc_runtime_Memory_calloc__E                                      
0000d449  xdc_runtime_Memory_getMaxDefaultTypeAlign__E                      
0000d455  xdc_runtime_System_Module_GateProxy_enter__E                      
0000d461  xdc_runtime_System_SupportProxy_abort__E                          
0000d46d  xdc_runtime_System_SupportProxy_exit__E                           
0000d479  ADCIntClear                                                       
0000d483  I2CMasterDisable                                                  
0000d48d  I2CMasterEnable                                                   
0000d497  I2CTiva_init                                                      
0000d4a1  QEIEnable                                                         
0000d4ab  QEIIntStatus                                                      
0000d4b5  QEIVelocityEnable                                                 
0000d4bf  SPITivaDMA_init                                                   
0000d4c9  SPI_transfer                                                      
0000d4d3  SSIDMADisable                                                     
0000d4dd  SSIDisable                                                        
0000d4e7  SSIEnable                                                         
0000d4f1  SSIIntDisable                                                     
0000d4fb  TimerValueGet                                                     
0000d505  UARTCharGet                                                       
0000d50f  UARTCharPut                                                       
0000d519  UARTIntDisable                                                    
0000d523  UARTIntStatus                                                     
0000d52d  UART_read                                                         
0000d537  UART_write                                                        
0000d541  WatchdogEnable                                                    
0000d54b  WatchdogResetDisable                                              
0000d555  WatchdogResetEnable                                               
0000d55f  I2CMasterIntClear                                                 
0000d567  I2CMasterSlaveAddrSet                                             
0000d577  SSIDMAEnable                                                      
0000d57f  SSIIntEnable                                                      
0000d587  TimerIntEnable                                                    
0000d58f  UARTIntEnable                                                     
0000d597  UARTRxErrorGet                                                    
0000d59f  WatchdogLock                                                      
0000d5a7  WatchdogTiva_clear                                                
0000d5af  WatchdogTiva_init                                                 
0000d5bf  ti_sysbios_family_arm_lm4_Timer_Module__startupDone__S            
0000d5c7  ti_sysbios_family_arm_lm4_Timer_masterDisable__I                  
0000d5cf  ti_sysbios_family_arm_m3_Hwi_Module__startupDone__S               
0000d5d9  ti_sysbios_family_arm_m3_Hwi_doSwiRestore__I                      
0000d5e1  ti_sysbios_family_arm_m3_Hwi_startup__E                           
0000d5e9  ti_sysbios_hal_Hwi_HwiProxy_Module__startupDone__S                
0000d5f1  ti_sysbios_hal_Hwi_HwiProxy_startup__E                            
0000d5f1  ti_sysbios_hal_Hwi_startup__E                                     
0000d5f9  ti_sysbios_hal_Hwi_HwiProxy_switchFromBootStack__E                
0000d5f9  ti_sysbios_hal_Hwi_switchFromBootStack__E                         
0000d601  ti_sysbios_knl_Clock_TimerProxy_Module__startupDone__S            
0000d609  ti_sysbios_knl_Task_SupportProxy_Module__startupDone__S           
0000d611  ti_sysbios_knl_Task_SupportProxy_getStackAlignment__E             
0000d621  xdc_runtime_System_SupportProxy_ready__E                          
0000d629  I2CMasterIntEnable                                                
0000d62f  I2CTiva_control                                                   
0000d635  SPITivaDMA_control                                                
0000d641  SysCtlDelay                                                       
0000d647  UARTFIFOLevelSet                                                  
0000d64d  UARTRxErrorClear                                                  
0000d653  WatchdogIntClear                                                  
0000d659  WatchdogTiva_control                                              
0000d65f  ti_catalog_arm_cortexm4_tiva_ce_Boot_sysCtlDelayI__I              
0000d669  ti_sysbios_family_arm_m3_Hwi_doTaskRestore__I                     
0000d671  ti_sysbios_family_arm_m3_Hwi_restoreFxn__E                        
0000d679  ti_sysbios_gates_GateHwi_leave__E                                 
0000d681  ti_sysbios_heaps_HeapMem_isBlocking__E                            
0000d689  ti_sysbios_knl_Clock_stop__E                                      
0000d691  ti_sysbios_knl_Queue_Instance_init__E                             
0000d699  ti_sysbios_knl_Swi_startup__E                                     
0000d69f  xdc_runtime_System_Module_startup__E                              
0000d6a9  ti_sysbios_gates_GateHwi_query__E                                 
0000d6b1  ti_sysbios_gates_GateMutex_query__E                               
0000d6b9  ti_sysbios_knl_Task_startup__E                                    
0000d6c1  ti_sysbios_gates_GateHwi_Instance_init__E                         
0000d6c9  ti_sysbios_knl_Clock_logTick__E                                   
0000d6cc  xdc_runtime_Text_charTab__A                                       
0000efc2  ti_catalog_arm_cortexm4_tiva_ce_Boot_Module__id__C                
0000f474  _ctypes_                                                          
0000f575  xdc_runtime_Error_policy__C                                       
0000f576  xdc_runtime_Text_nodeTab__A                                       
0000f63a  ti_sysbios_family_arm_m3_Hwi_Module__id__C                        
0000f6cc  spiTivaDMAHWAttrs                                                 
0000f7b0  SPITivaDMA_fxnTable                                               
0000f944  uartTivaHWAttrs                                                   
0000f98c  ti_sysbios_knl_Task_Object__PARAMS__C                             
0000fa00  ti_sysbios_knl_Mailbox_Object__PARAMS__C                          
0000fa34  SPI_config                                                        
0000fa64  UART_config                                                       
0000fa94  ti_sysbios_family_arm_m3_Hwi_Object__PARAMS__C                    
0000faf0  UARTTiva_fxnTable                                                 
0000fb18  ti_sysbios_heaps_HeapMem_Module__FXNS__C                          
0000fb40  I2C_config                                                        
0000fb64  UART_defaultParams                                                
0000fb88  ti_sysbios_gates_GateHwi_Module__FXNS__C                          
0000fbac  ti_sysbios_gates_GateMutex_Module__FXNS__C                        
0000fbd0  ti_sysbios_heaps_HeapMem_Object__PARAMS__C                        
0000fbf4  ti_sysbios_knl_Clock_Object__PARAMS__C                            
0000fc18  ti_sysbios_knl_Semaphore_Object__PARAMS__C                        
0000fc3c  xdc_runtime_Startup_sfxnTab__A                                    
0000fc60  SPI_defaultParams                                                 
0000fc80  ti_sysbios_family_arm_m3_Hwi_Object__DESC__C                      
0000fca0  ti_sysbios_gates_GateHwi_Object__DESC__C                          
0000fcc0  ti_sysbios_gates_GateMutex_Object__DESC__C                        
0000fce0  ti_sysbios_heaps_HeapMem_Object__DESC__C                          
0000fd00  ti_sysbios_knl_Clock_Object__DESC__C                              
0000fd20  ti_sysbios_knl_Mailbox_Object__DESC__C                            
0000fd40  ti_sysbios_knl_Queue_Object__DESC__C                              
0000fd60  ti_sysbios_knl_Semaphore_Object__DESC__C                          
0000fd80  ti_sysbios_knl_Task_Object__DESC__C                               
0000fda0  I2CTiva_fxnTable                                                  
0000fdd6  ti_sysbios_hal_Hwi_Module__id__C                                  
0000fdd8  Watchdog_config                                                   
0000fdf0  WatchdogTiva_fxnTable                                             
0000fe08  i2cTivaHWAttrs                                                    
0000fe20  ti_sysbios_gates_GateHwi_Object__PARAMS__C                        
0000fe38  ti_sysbios_gates_GateMutex_Object__PARAMS__C                      
0000fe50  ti_sysbios_knl_Queue_Object__PARAMS__C                            
0000fe80  GPIOTiva_config                                                   
0000fe94  xdc_runtime_Startup_firstFxns__A                                  
0000fea8  xdc_runtime_Startup_sfxnRts__A                                    
0000feba  ti_sysbios_heaps_HeapMem_Module__id__C                            
0000febc  I2C_defaultParams                                                 
0000fecc  watchdogTivaHWAttrs                                               
0000feec  ti_sysbios_family_arm_m3_Hwi_excHookFuncs__A                      
0000fef4  ti_sysbios_knl_Idle_funcList__C                                   
0000fefc  xdc_runtime_Startup_firstFxns__C                                  
0000ff04  xdc_runtime_Startup_lastFxns__C                                   
0000ff1c  ti_catalog_arm_cortexm4_tiva_ce_Boot_A_mustUseEnhancedClockMode__C
0000ff20  ti_catalog_arm_cortexm4_tiva_ce_Boot_Module__diagsEnabled__C      
0000ff24  ti_catalog_arm_cortexm4_tiva_ce_Boot_Module__diagsIncluded__C     
0000ff28  ti_catalog_arm_cortexm4_tiva_ce_Boot_Module__diagsMask__C         
0000ff2c  ti_sysbios_BIOS_installedErrorHook__C                             
0000ff30  ti_sysbios_family_arm_lm4_Timer_enableFunc__C                     
0000ff34  ti_sysbios_family_arm_lm4_Timer_numTimerDevices__C                
0000ff38  ti_sysbios_family_arm_lm4_Timer_startupNeeded__C                  
0000ff3c  ti_sysbios_family_arm_m3_Hwi_E_NMI__C                             
0000ff40  ti_sysbios_family_arm_m3_Hwi_E_alreadyDefined__C                  
0000ff44  ti_sysbios_family_arm_m3_Hwi_E_busFault__C                        
0000ff48  ti_sysbios_family_arm_m3_Hwi_E_debugMon__C                        
0000ff4c  ti_sysbios_family_arm_m3_Hwi_E_hardFault__C                       
0000ff50  ti_sysbios_family_arm_m3_Hwi_E_memFault__C                        
0000ff54  ti_sysbios_family_arm_m3_Hwi_E_noIsr__C                           
0000ff58  ti_sysbios_family_arm_m3_Hwi_E_reserved__C                        
0000ff5c  ti_sysbios_family_arm_m3_Hwi_E_svCall__C                          
0000ff60  ti_sysbios_family_arm_m3_Hwi_E_usageFault__C                      
0000ff64  ti_sysbios_family_arm_m3_Hwi_NUM_INTERRUPTS__C                    
0000ff68  ti_sysbios_family_arm_m3_Hwi_Object__count__C                     
0000ff6c  ti_sysbios_family_arm_m3_Hwi_Object__table__C                     
0000ff70  ti_sysbios_family_arm_m3_Hwi_ccr__C                               
0000ff74  ti_sysbios_family_arm_m3_Hwi_excHandlerFunc__C                    
0000ff78  ti_sysbios_family_arm_m3_Hwi_excHookFuncs__C                      
0000ff7c  ti_sysbios_family_arm_m3_Hwi_nullIsrFunc__C                       
0000ff80  ti_sysbios_family_arm_m3_Hwi_priGroup__C                          
0000ff84  ti_sysbios_family_arm_m3_TaskSupport_stackAlignment__C            
0000ff88  ti_sysbios_gates_GateMutex_Instance_State_sem__O                  
0000ff8c  ti_sysbios_hal_Hwi_E_stackOverflow__C                             
0000ff90  ti_sysbios_heaps_HeapMem_E_memory__C                              
0000ff94  ti_sysbios_heaps_HeapMem_Module__gateObj__C                       
0000ff98  ti_sysbios_heaps_HeapMem_Object__count__C                         
0000ff9c  ti_sysbios_heaps_HeapMem_Object__table__C                         
0000ffa0  ti_sysbios_heaps_HeapMem_reqAlign__C                              
0000ffa4  ti_sysbios_knl_Clock_Module_State_clockQ__O                       
0000ffa8  ti_sysbios_knl_Idle_funcList__A                                   
0000ffac  ti_sysbios_knl_Mailbox_Instance_State_dataQue__O                  
0000ffb0  ti_sysbios_knl_Mailbox_Instance_State_dataSem__O                  
0000ffb4  ti_sysbios_knl_Mailbox_Instance_State_freeQue__O                  
0000ffb8  ti_sysbios_knl_Mailbox_Instance_State_freeSem__O                  
0000ffbc  ti_sysbios_knl_Mailbox_Object__count__C                           
0000ffc0  ti_sysbios_knl_Mailbox_Object__table__C                           
0000ffc4  ti_sysbios_knl_Mailbox_maxTypeAlign__C                            
0000ffc8  ti_sysbios_knl_Queue_Object__count__C                             
0000ffcc  ti_sysbios_knl_Queue_Object__table__C                             
0000ffd0  ti_sysbios_knl_Semaphore_Instance_State_pendQ__O                  
0000ffd4  ti_sysbios_knl_Swi_Object__count__C                               
0000ffd8  ti_sysbios_knl_Swi_Object__table__C                               
0000ffdc  ti_sysbios_knl_Task_E_spOutOfBounds__C                            
0000ffe0  ti_sysbios_knl_Task_E_stackOverflow__C                            
0000ffe4  ti_sysbios_knl_Task_Module_State_inactiveQ__O                     
0000ffe8  ti_sysbios_knl_Task_Object__count__C                              
0000ffec  ti_sysbios_knl_Task_Object__table__C                              
0000fff0  ti_sysbios_knl_Task_allBlockedFunc__C                             
0000fff4  ti_sysbios_knl_Task_defaultStackHeap__C                           
0000fff8  ti_sysbios_knl_Task_defaultStackSize__C                           
0000fffc  ti_sysbios_knl_Task_numConstructedTasks__C                        
00010000  xdc_runtime_Assert_E_assertFailed__C                              
00010004  xdc_runtime_Core_A_initializedParams__C                           
00010008  xdc_runtime_Core_Module__diagsEnabled__C                          
0001000c  xdc_runtime_Core_Module__diagsIncluded__C                         
00010010  xdc_runtime_Core_Module__diagsMask__C                             
00010014  xdc_runtime_Error_E_memory__C                                     
00010018  xdc_runtime_Error_Module__diagsEnabled__C                         
0001001c  xdc_runtime_Error_Module__diagsIncluded__C                        
00010020  xdc_runtime_Error_Module__diagsMask__C                            
00010024  xdc_runtime_Error_Module__loggerFxn8__C                           
00010028  xdc_runtime_Error_Module__loggerObj__C                            
0001002c  xdc_runtime_Error_policyFxn__C                                    
00010030  xdc_runtime_Error_raiseHook__C                                    
00010034  xdc_runtime_IGateProvider_Interface__BASE__C                      
00010038  xdc_runtime_IHeap_Interface__BASE__C                              
0001003c  xdc_runtime_IModule_Interface__BASE__C                            
00010040  xdc_runtime_Log_L_error__C                                        
00010044  xdc_runtime_Main_Module__gateObj__C                               
00010048  xdc_runtime_Memory_defaultHeapInstance__C                         
0001004c  xdc_runtime_Startup_execImpl__C                                   
00010050  xdc_runtime_Startup_maxPasses__C                                  
00010054  xdc_runtime_Startup_sfxnRts__C                                    
00010058  xdc_runtime_Startup_sfxnTab__C                                    
0001005c  xdc_runtime_Startup_startModsFxn__C                               
00010060  xdc_runtime_SysMin_bufSize__C                                     
00010064  xdc_runtime_SysMin_outputFunc__C                                  
00010068  xdc_runtime_System_Module__gateObj__C                             
0001006c  xdc_runtime_System_abortFxn__C                                    
00010070  xdc_runtime_System_exitFxn__C                                     
00010074  xdc_runtime_System_extendFxn__C                                   
00010078  xdc_runtime_System_maxAtexitHandlers__C                           
0001007c  xdc_runtime_Text_charTab__C                                       
00010080  xdc_runtime_Text_nameEmpty__C                                     
00010084  xdc_runtime_Text_nameStatic__C                                    
00010088  xdc_runtime_Text_nameUnknown__C                                   
0001008c  xdc_runtime_Text_nodeTab__C                                       
00010090  xdc_runtime_Text_visitRopeFxn__C                                  
00010098  ti_sysbios_knl_Task_Module__id__C                                 
0001009a  xdc_runtime_Core_Module__id__C                                    
0001009c  xdc_runtime_Error_Module__loggerDefined__C                        
0001009e  xdc_runtime_Error_maxDepth__C                                     
000100a0  xdc_runtime_Memory_Module__id__C                                  
000100a2  xdc_runtime_SysMin_flushAtExit__C                                 
000100a4  xdc_runtime_Text_charCnt__C                                       
000100a6  xdc_runtime_Text_isLoaded__C                                      
000100a8  xdc_runtime_Text_registryModsLastId__C                            
000100aa  xdc_runtime_Text_unnamedModsLastId__C                             
000100b0  __TI_static_base__                                                
00010698  __TI_Handler_Table_Base                                           
000106a4  __TI_Handler_Table_Limit                                          
000106b8  __TI_CINIT_Base                                                   
000106d0  __TI_CINIT_Limit                                                  
20000000  ti_sysbios_family_arm_m3_Hwi_ramVectors                           
20000400  ti_sysbios_heaps_HeapMem_Instance_State_0_buf__A                  
20003400  ti_sysbios_family_arm_m3_Hwi_dispatchTable                        
20003760  uartTivaObjects                                                   
200039c8  ti_sysbios_knl_Task_Instance_State_0_stack__A                     
20003bfc  g_semaSPI                                                         
20003e00  xdc_runtime_SysMin_Module_State_0_outbuf__A                       
20004000  __CIOBUF_                                                         
20004220  i2cTivaObjects                                                    
20004320  spiTivaDMAObjects                                                 
20004404  g_servo                                                           
200044cc  g_sys                                                             
20004614  uartTivaRingBuffer                                                
20004694  watchdogTivaObjects                                               
200046e0  spiTivaDMAscratchBuf                                              
20005458  ti_sysbios_knl_Swi_Module_State_0_readyQ__A                       
200054d8  ti_sysbios_knl_Task_Module_State_0_readyQ__A                      
20005558  ti_sysbios_knl_Task_Object__table__V                              
200055a4  ti_sysbios_knl_Task_Module__state__V                              
200055e8  ti_sysbios_family_arm_lm4_Timer_Object__table__V                  
20005628  ti_sysbios_gates_GateMutex_Object__table__V                       
20005660  ti_sysbios_family_arm_m3_Hwi_Module__state__V                     
20005694  gpioPinConfigs                                                    
200056c4  ti_sysbios_family_arm_lm4_Timer_Module_State_0_device__A          
200056f4  ti_sysbios_knl_Swi_Object__table__V                               
20005750  ti_sysbios_knl_Clock_Module__state__V                             
200057a4  ti_sysbios_BIOS_Module__state__V                                  
200057c8  g_mailboxCommander                                                
200057cc  g_mailboxController                                               
200057d0  g_handleI2C0                                                      
200057d4  g_handleI2C1                                                      
200057d8  g_handleUartTTY                                                   
200057dc  g_handleUartIPC                                                   
200057e0  g_cmode                                                           
200057e4  g_lamp_mask                                                       
200057e5  g_lamp_mask_prev                                                  
200057e6  g_lamp_blink_mask                                                 
200057e7  g_switch_option                                                   
200057e8  g_high_speed_flag                                                 
200057e9  g_tape_out_flag                                                   
20005808  ti_sysbios_knl_Swi_Module__state__V                               
20005824  ti_sysbios_family_arm_lm4_Timer_Module_State_0_handles__A         
2000583c  ti_sysbios_family_arm_m3_Hwi_Object__table__V                     
20005854  ti_sysbios_heaps_HeapMem_Object__table__V                         
20005910  __TI_cleanup_ptr                                                  
20005914  __TI_dtors_ptr                                                    
20005918  __TI_enable_exit_profile_output                                   
2000591c  ti_sysbios_family_arm_lm4_Timer_Module__state__V                  
20005928  xdc_runtime_SysMin_Module__state__V                               
20005934  _lock                                                             
20005938  _unlock                                                           
2000593c  gpioCallbackFunctions                                             
20005954  ti_sysbios_family_arm_m3_Hwi_Module__root__V                      
2000595c  ti_sysbios_gates_GateHwi_Module__root__V                          
20005964  ti_sysbios_gates_GateMutex_Module__root__V                        
2000596c  ti_sysbios_heaps_HeapMem_Module__root__V                          
20005974  ti_sysbios_knl_Clock_Module__root__V                              
2000597c  ti_sysbios_knl_Mailbox_Module__root__V                            
20005984  ti_sysbios_knl_Queue_Module__root__V                              
2000598c  ti_sysbios_knl_Semaphore_Module__root__V                          
20005994  ti_sysbios_knl_Task_Module__root__V                               
2000599c  xdc_runtime_Registry_Module__state__V                             
200059a4  xdc_runtime_Startup_Module__state__V                              
200059ac  xdc_runtime_System_Module_State_0_atexitHandlers__A               
200059b4  xdc_runtime_System_Module__state__V                               
200059c2  ti_sysbios_family_arm_m3_Hwi_Module_State_0_excActive__A          
200059d8  errno                                                             
200059dc  main_func_sp                                                      
200059e0  ti_sysbios_family_arm_m3_Hwi_Module_State_0_excContext__A         
200059e4  ti_sysbios_family_arm_m3_Hwi_Module_State_0_excStack__A           
200059e8  ti_sysbios_gates_GateHwi_Object__table__V                         
200059ec  ti_sysbios_knl_Task_Module_State_0_idleTask__A                    
200059f0  xdc_runtime_Memory_Module__state__V                               
200059f4  xdc_runtime_Error_Module__state__V                                
200059f8  __stack                                                           
20005bf8  __STACK_TOP                                                       
20005cf8  __STACK_END                                                       
e000e000  ti_sysbios_family_arm_m3_Hwi_nvic                                 
ffffffff  __TI_pprof_out_hndl                                               
ffffffff  __TI_prof_data_size                                               
ffffffff  __TI_prof_data_start                                              
ffffffff  __binit__                                                         
ffffffff  __c_args__                                                        
ffffffff  binit                                                             
UNDEFED   SHT$$INIT_ARRAY$$Base                                             
UNDEFED   SHT$$INIT_ARRAY$$Limit                                            

[831 symbols]
